	.file	"test1_2.cpp"
	.text
	.section	.text._ZnwmPv,"axG",@progbits,_ZnwmPv,comdat
	.weak	_ZnwmPv
	.type	_ZnwmPv, @function
_ZnwmPv:
.LFB38:
	.cfi_startproc
	endbr64
	pushq	%rbp
	.cfi_def_cfa_offset 16
	.cfi_offset 6, -16
	movq	%rsp, %rbp
	.cfi_def_cfa_register 6
	movq	%rdi, -8(%rbp)
	movq	%rsi, -16(%rbp)
	movq	-16(%rbp), %rax
	popq	%rbp
	.cfi_def_cfa 7, 8
	ret
	.cfi_endproc
.LFE38:
	.size	_ZnwmPv, .-_ZnwmPv
	.section	.text._ZN9__gnu_cxx5__ops16__iter_less_iterEv,"axG",@progbits,_ZN9__gnu_cxx5__ops16__iter_less_iterEv,comdat
	.weak	_ZN9__gnu_cxx5__ops16__iter_less_iterEv
	.type	_ZN9__gnu_cxx5__ops16__iter_less_iterEv, @function
_ZN9__gnu_cxx5__ops16__iter_less_iterEv:
.LFB280:
	.cfi_startproc
	endbr64
	pushq	%rbp
	.cfi_def_cfa_offset 16
	.cfi_offset 6, -16
	movq	%rsp, %rbp
	.cfi_def_cfa_register 6
	nop
	popq	%rbp
	.cfi_def_cfa 7, 8
	ret
	.cfi_endproc
.LFE280:
	.size	_ZN9__gnu_cxx5__ops16__iter_less_iterEv, .-_ZN9__gnu_cxx5__ops16__iter_less_iterEv
	.section	.text._ZSt17__size_to_integerm,"axG",@progbits,_ZSt17__size_to_integerm,comdat
	.weak	_ZSt17__size_to_integerm
	.type	_ZSt17__size_to_integerm, @function
_ZSt17__size_to_integerm:
.LFB371:
	.cfi_startproc
	endbr64
	pushq	%rbp
	.cfi_def_cfa_offset 16
	.cfi_offset 6, -16
	movq	%rsp, %rbp
	.cfi_def_cfa_register 6
	movq	%rdi, -8(%rbp)
	movq	-8(%rbp), %rax
	popq	%rbp
	.cfi_def_cfa 7, 8
	ret
	.cfi_endproc
.LFE371:
	.size	_ZSt17__size_to_integerm, .-_ZSt17__size_to_integerm
	.local	_ZStL8__ioinit
	.comm	_ZStL8__ioinit,1,1
	.section	.text._ZSt3minImERKT_S2_S2_,"axG",@progbits,_ZSt3minImERKT_S2_S2_,comdat
	.weak	_ZSt3minImERKT_S2_S2_
	.type	_ZSt3minImERKT_S2_S2_, @function
_ZSt3minImERKT_S2_S2_:
.LFB2704:
	.cfi_startproc
	endbr64
	pushq	%rbp
	.cfi_def_cfa_offset 16
	.cfi_offset 6, -16
	movq	%rsp, %rbp
	.cfi_def_cfa_register 6
	movq	%rdi, -8(%rbp)
	movq	%rsi, -16(%rbp)
	movq	-16(%rbp), %rax
	movq	(%rax), %rdx
	movq	-8(%rbp), %rax
	movq	(%rax), %rax
	cmpq	%rax, %rdx
	jnb	.L8
	movq	-16(%rbp), %rax
	jmp	.L9
.L8:
	movq	-8(%rbp), %rax
.L9:
	popq	%rbp
	.cfi_def_cfa 7, 8
	ret
	.cfi_endproc
.LFE2704:
	.size	_ZSt3minImERKT_S2_S2_, .-_ZSt3minImERKT_S2_S2_
	.section	.rodata
	.type	_ZN6__pstl9execution2v1L3seqE, @object
	.size	_ZN6__pstl9execution2v1L3seqE, 1
_ZN6__pstl9execution2v1L3seqE:
	.zero	1
	.type	_ZN6__pstl9execution2v1L3parE, @object
	.size	_ZN6__pstl9execution2v1L3parE, 1
_ZN6__pstl9execution2v1L3parE:
	.zero	1
	.type	_ZN6__pstl9execution2v1L9par_unseqE, @object
	.size	_ZN6__pstl9execution2v1L9par_unseqE, 1
_ZN6__pstl9execution2v1L9par_unseqE:
	.zero	1
	.type	_ZN6__pstl9execution2v1L5unseqE, @object
	.size	_ZN6__pstl9execution2v1L5unseqE, 1
_ZN6__pstl9execution2v1L5unseqE:
	.zero	1
	.align 4
	.type	_ZL1N, @object
	.size	_ZL1N, 4
_ZL1N:
	.long	1000000
	.text
	.globl	_Z9factoriali
	.type	_Z9factoriali, @function
_Z9factoriali:
.LFB3817:
	.cfi_startproc
	endbr64
	pushq	%rbp
	.cfi_def_cfa_offset 16
	.cfi_offset 6, -16
	movq	%rsp, %rbp
	.cfi_def_cfa_register 6
	pushq	%rbx
	subq	$24, %rsp
	.cfi_offset 3, -24
	movl	%edi, -20(%rbp)
	cmpl	$1, -20(%rbp)
	jg	.L11
	movl	$1, %eax
	jmp	.L12
.L11:
	movl	-20(%rbp), %eax
	movslq	%eax, %rbx
	movl	-20(%rbp), %eax
	subl	$1, %eax
	movl	%eax, %edi
	call	_Z9factoriali
	imulq	%rbx, %rax
.L12:
	movq	-8(%rbp), %rbx
	leave
	.cfi_def_cfa 7, 8
	ret
	.cfi_endproc
.LFE3817:
	.size	_Z9factoriali, .-_Z9factoriali
	.align 2
	.type	_ZZ14sum_of_squaresRKSt6vectorIdSaIdEEENKUlddE_clEdd, @function
_ZZ14sum_of_squaresRKSt6vectorIdSaIdEEENKUlddE_clEdd:
.LFB3819:
	.cfi_startproc
	pushq	%rbp
	.cfi_def_cfa_offset 16
	.cfi_offset 6, -16
	movq	%rsp, %rbp
	.cfi_def_cfa_register 6
	movq	%rdi, -8(%rbp)
	movsd	%xmm0, -16(%rbp)
	movsd	%xmm1, -24(%rbp)
	movsd	-24(%rbp), %xmm0
	mulsd	%xmm0, %xmm0
	addsd	-16(%rbp), %xmm0
	movq	%xmm0, %rax
	movq	%rax, %xmm0
	popq	%rbp
	.cfi_def_cfa 7, 8
	ret
	.cfi_endproc
.LFE3819:
	.size	_ZZ14sum_of_squaresRKSt6vectorIdSaIdEEENKUlddE_clEdd, .-_ZZ14sum_of_squaresRKSt6vectorIdSaIdEEENKUlddE_clEdd
	.globl	_Z14sum_of_squaresRKSt6vectorIdSaIdEE
	.type	_Z14sum_of_squaresRKSt6vectorIdSaIdEE, @function
_Z14sum_of_squaresRKSt6vectorIdSaIdEE:
.LFB3818:
	.cfi_startproc
	endbr64
	pushq	%rbp
	.cfi_def_cfa_offset 16
	.cfi_offset 6, -16
	movq	%rsp, %rbp
	.cfi_def_cfa_register 6
	pushq	%rbx
	subq	$24, %rsp
	.cfi_offset 3, -24
	movq	%rdi, -24(%rbp)
	movq	-24(%rbp), %rax
	movq	%rax, %rdi
	call	_ZNKSt6vectorIdSaIdEE3endEv
	movq	%rax, %rbx
	movq	-24(%rbp), %rax
	movq	%rax, %rdi
	call	_ZNKSt6vectorIdSaIdEE5beginEv
	movq	%rax, %rdx
	movq	.LC0(%rip), %rax
	movq	%rax, %xmm0
	movq	%rbx, %rsi
	movq	%rdx, %rdi
	call	_ZSt10accumulateIN9__gnu_cxx17__normal_iteratorIPKdSt6vectorIdSaIdEEEEdZ14sum_of_squaresRKS6_EUlddE_ET0_T_SC_SB_T1_
	movq	%xmm0, %rax
	movq	%rax, %xmm0
	movq	-8(%rbp), %rbx
	leave
	.cfi_def_cfa 7, 8
	ret
	.cfi_endproc
.LFE3818:
	.size	_Z14sum_of_squaresRKSt6vectorIdSaIdEE, .-_Z14sum_of_squaresRKSt6vectorIdSaIdEE
	.globl	_Z11max_elementRKSt6vectorIdSaIdEE
	.type	_Z11max_elementRKSt6vectorIdSaIdEE, @function
_Z11max_elementRKSt6vectorIdSaIdEE:
.LFB3822:
	.cfi_startproc
	endbr64
	pushq	%rbp
	.cfi_def_cfa_offset 16
	.cfi_offset 6, -16
	movq	%rsp, %rbp
	.cfi_def_cfa_register 6
	pushq	%rbx
	subq	$40, %rsp
	.cfi_offset 3, -24
	movq	%rdi, -40(%rbp)
	movq	%fs:40, %rax
	movq	%rax, -24(%rbp)
	xorl	%eax, %eax
	movq	-40(%rbp), %rax
	movq	%rax, %rdi
	call	_ZNKSt6vectorIdSaIdEE3endEv
	movq	%rax, %rbx
	movq	-40(%rbp), %rax
	movq	%rax, %rdi
	call	_ZNKSt6vectorIdSaIdEE5beginEv
	movq	%rbx, %rsi
	movq	%rax, %rdi
	call	_ZSt11max_elementIN9__gnu_cxx17__normal_iteratorIPKdSt6vectorIdSaIdEEEEET_S8_S8_
	movq	%rax, -32(%rbp)
	leaq	-32(%rbp), %rax
	movq	%rax, %rdi
	call	_ZNK9__gnu_cxx17__normal_iteratorIPKdSt6vectorIdSaIdEEEdeEv
	movsd	(%rax), %xmm0
	movq	%xmm0, %rax
	movq	-24(%rbp), %rdx
	subq	%fs:40, %rdx
	je	.L19
	call	__stack_chk_fail@PLT
.L19:
	movq	%rax, %xmm0
	movq	-8(%rbp), %rbx
	leave
	.cfi_def_cfa 7, 8
	ret
	.cfi_endproc
.LFE3822:
	.size	_Z11max_elementRKSt6vectorIdSaIdEE, .-_Z11max_elementRKSt6vectorIdSaIdEE
	.globl	_Z4meanRKSt6vectorIdSaIdEE
	.type	_Z4meanRKSt6vectorIdSaIdEE, @function
_Z4meanRKSt6vectorIdSaIdEE:
.LFB3823:
	.cfi_startproc
	endbr64
	pushq	%rbp
	.cfi_def_cfa_offset 16
	.cfi_offset 6, -16
	movq	%rsp, %rbp
	.cfi_def_cfa_register 6
	pushq	%rbx
	subq	$24, %rsp
	.cfi_offset 3, -24
	movq	%rdi, -24(%rbp)
	movq	-24(%rbp), %rax
	movq	%rax, %rdi
	call	_ZNKSt6vectorIdSaIdEE3endEv
	movq	%rax, %rbx
	movq	-24(%rbp), %rax
	movq	%rax, %rdi
	call	_ZNKSt6vectorIdSaIdEE5beginEv
	movq	%rax, %rdx
	movq	.LC0(%rip), %rax
	movq	%rax, %xmm0
	movq	%rbx, %rsi
	movq	%rdx, %rdi
	call	_ZSt10accumulateIN9__gnu_cxx17__normal_iteratorIPKdSt6vectorIdSaIdEEEEdET0_T_S9_S8_
	movq	%xmm0, %rbx
	movq	-24(%rbp), %rax
	movq	%rax, %rdi
	call	_ZNKSt6vectorIdSaIdEE4sizeEv
	testq	%rax, %rax
	js	.L21
	pxor	%xmm0, %xmm0
	cvtsi2sdq	%rax, %xmm0
	jmp	.L22
.L21:
	movq	%rax, %rdx
	shrq	%rdx
	andl	$1, %eax
	orq	%rax, %rdx
	pxor	%xmm0, %xmm0
	cvtsi2sdq	%rdx, %xmm0
	addsd	%xmm0, %xmm0
.L22:
	movq	%rbx, %xmm1
	divsd	%xmm0, %xmm1
	movq	%xmm1, %rax
	movq	%rax, %xmm0
	movq	-8(%rbp), %rbx
	leave
	.cfi_def_cfa 7, 8
	ret
	.cfi_endproc
.LFE3823:
	.size	_Z4meanRKSt6vectorIdSaIdEE, .-_Z4meanRKSt6vectorIdSaIdEE
	.section	.rodata
.LC2:
	.string	"Sum of squares: "
.LC3:
	.string	"Max element: "
.LC4:
	.string	"Mean: "
.LC5:
	.string	"Factorial of "
.LC6:
	.string	": "
	.text
	.globl	main
	.type	main, @function
main:
.LFB3824:
	.cfi_startproc
	.cfi_personality 0x9b,DW.ref.__gxx_personality_v0
	.cfi_lsda 0x1b,.LLSDA3824
	endbr64
	pushq	%rbp
	.cfi_def_cfa_offset 16
	.cfi_offset 6, -16
	movq	%rsp, %rbp
	.cfi_def_cfa_register 6
	pushq	%rbx
	subq	$72, %rsp
	.cfi_offset 3, -24
	movq	%fs:40, %rax
	movq	%rax, -24(%rbp)
	xorl	%eax, %eax
	leaq	-77(%rbp), %rax
	movq	%rax, %rdi
	call	_ZNSaIdEC1Ev
	leaq	-77(%rbp), %rdx
	leaq	-48(%rbp), %rax
	movl	$1000000, %esi
	movq	%rax, %rdi
.LEHB0:
	call	_ZNSt6vectorIdSaIdEEC1EmRKS0_
.LEHE0:
	leaq	-77(%rbp), %rax
	movq	%rax, %rdi
	call	_ZNSaIdED1Ev
	leaq	-48(%rbp), %rax
	movq	%rax, %rdi
	call	_ZNSt6vectorIdSaIdEE3endEv
	movq	%rax, %rbx
	leaq	-48(%rbp), %rax
	movq	%rax, %rdi
	call	_ZNSt6vectorIdSaIdEE5beginEv
	movq	%rax, %rdx
	movq	.LC1(%rip), %rax
	movq	%rax, %xmm0
	movq	%rbx, %rsi
	movq	%rdx, %rdi
	call	_ZSt4iotaIN9__gnu_cxx17__normal_iteratorIPdSt6vectorIdSaIdEEEEdEvT_S7_T0_
	leaq	-48(%rbp), %rax
	movq	%rax, %rdi
	call	_Z14sum_of_squaresRKSt6vectorIdSaIdEE
	movq	%xmm0, %rax
	movq	%rax, -72(%rbp)
	leaq	.LC2(%rip), %rax
	movq	%rax, %rsi
	leaq	_ZSt4cout(%rip), %rax
	movq	%rax, %rdi
.LEHB1:
	call	_ZStlsISt11char_traitsIcEERSt13basic_ostreamIcT_ES5_PKc@PLT
	movq	%rax, %rdx
	movq	-72(%rbp), %rax
	movq	%rax, %xmm0
	movq	%rdx, %rdi
	call	_ZNSolsEd@PLT
	movq	_ZSt4endlIcSt11char_traitsIcEERSt13basic_ostreamIT_T0_ES6_@GOTPCREL(%rip), %rdx
	movq	%rdx, %rsi
	movq	%rax, %rdi
	call	_ZNSolsEPFRSoS_E@PLT
	leaq	-48(%rbp), %rax
	movq	%rax, %rdi
	call	_Z11max_elementRKSt6vectorIdSaIdEE
	movq	%xmm0, %rax
	movq	%rax, -64(%rbp)
	leaq	.LC3(%rip), %rax
	movq	%rax, %rsi
	leaq	_ZSt4cout(%rip), %rax
	movq	%rax, %rdi
	call	_ZStlsISt11char_traitsIcEERSt13basic_ostreamIcT_ES5_PKc@PLT
	movq	%rax, %rdx
	movq	-64(%rbp), %rax
	movq	%rax, %xmm0
	movq	%rdx, %rdi
	call	_ZNSolsEd@PLT
	movq	_ZSt4endlIcSt11char_traitsIcEERSt13basic_ostreamIT_T0_ES6_@GOTPCREL(%rip), %rdx
	movq	%rdx, %rsi
	movq	%rax, %rdi
	call	_ZNSolsEPFRSoS_E@PLT
	leaq	-48(%rbp), %rax
	movq	%rax, %rdi
	call	_Z4meanRKSt6vectorIdSaIdEE
	movq	%xmm0, %rax
	movq	%rax, -56(%rbp)
	leaq	.LC4(%rip), %rax
	movq	%rax, %rsi
	leaq	_ZSt4cout(%rip), %rax
	movq	%rax, %rdi
	call	_ZStlsISt11char_traitsIcEERSt13basic_ostreamIcT_ES5_PKc@PLT
	movq	%rax, %rdx
	movq	-56(%rbp), %rax
	movq	%rax, %xmm0
	movq	%rdx, %rdi
	call	_ZNSolsEd@PLT
	movq	_ZSt4endlIcSt11char_traitsIcEERSt13basic_ostreamIT_T0_ES6_@GOTPCREL(%rip), %rdx
	movq	%rdx, %rsi
	movq	%rax, %rdi
	call	_ZNSolsEPFRSoS_E@PLT
	movl	$20, -76(%rbp)
	leaq	.LC5(%rip), %rax
	movq	%rax, %rsi
	leaq	_ZSt4cout(%rip), %rax
	movq	%rax, %rdi
	call	_ZStlsISt11char_traitsIcEERSt13basic_ostreamIcT_ES5_PKc@PLT
	movq	%rax, %rdx
	movl	-76(%rbp), %eax
	movl	%eax, %esi
	movq	%rdx, %rdi
	call	_ZNSolsEi@PLT
	movq	%rax, %rdx
	leaq	.LC6(%rip), %rax
	movq	%rax, %rsi
	movq	%rdx, %rdi
	call	_ZStlsISt11char_traitsIcEERSt13basic_ostreamIcT_ES5_PKc@PLT
	movq	%rax, %rbx
	movl	-76(%rbp), %eax
	movl	%eax, %edi
	call	_Z9factoriali
	movq	%rax, %rsi
	movq	%rbx, %rdi
	call	_ZNSolsEx@PLT
	movq	_ZSt4endlIcSt11char_traitsIcEERSt13basic_ostreamIT_T0_ES6_@GOTPCREL(%rip), %rdx
	movq	%rdx, %rsi
	movq	%rax, %rdi
	call	_ZNSolsEPFRSoS_E@PLT
.LEHE1:
	movl	$0, %ebx
	leaq	-48(%rbp), %rax
	movq	%rax, %rdi
	call	_ZNSt6vectorIdSaIdEED1Ev
	movl	%ebx, %eax
	movq	-24(%rbp), %rdx
	subq	%fs:40, %rdx
	je	.L28
	jmp	.L31
.L29:
	endbr64
	movq	%rax, %rbx
	leaq	-77(%rbp), %rax
	movq	%rax, %rdi
	call	_ZNSaIdED1Ev
	movq	%rbx, %rax
	movq	%rax, %rdi
.LEHB2:
	call	_Unwind_Resume@PLT
.L30:
	endbr64
	movq	%rax, %rbx
	leaq	-48(%rbp), %rax
	movq	%rax, %rdi
	call	_ZNSt6vectorIdSaIdEED1Ev
	movq	%rbx, %rax
	movq	%rax, %rdi
	call	_Unwind_Resume@PLT
.LEHE2:
.L31:
	call	__stack_chk_fail@PLT
.L28:
	movq	-8(%rbp), %rbx
	leave
	.cfi_def_cfa 7, 8
	ret
	.cfi_endproc
.LFE3824:
	.globl	__gxx_personality_v0
	.section	.gcc_except_table,"a",@progbits
.LLSDA3824:
	.byte	0xff
	.byte	0xff
	.byte	0x1
	.uleb128 .LLSDACSE3824-.LLSDACSB3824
.LLSDACSB3824:
	.uleb128 .LEHB0-.LFB3824
	.uleb128 .LEHE0-.LEHB0
	.uleb128 .L29-.LFB3824
	.uleb128 0
	.uleb128 .LEHB1-.LFB3824
	.uleb128 .LEHE1-.LEHB1
	.uleb128 .L30-.LFB3824
	.uleb128 0
	.uleb128 .LEHB2-.LFB3824
	.uleb128 .LEHE2-.LEHB2
	.uleb128 0
	.uleb128 0
.LLSDACSE3824:
	.text
	.size	main, .-main
	.section	.text._ZNKSt6vectorIdSaIdEE5beginEv,"axG",@progbits,_ZNKSt6vectorIdSaIdEE5beginEv,comdat
	.align 2
	.weak	_ZNKSt6vectorIdSaIdEE5beginEv
	.type	_ZNKSt6vectorIdSaIdEE5beginEv, @function
_ZNKSt6vectorIdSaIdEE5beginEv:
.LFB4144:
	.cfi_startproc
	endbr64
	pushq	%rbp
	.cfi_def_cfa_offset 16
	.cfi_offset 6, -16
	movq	%rsp, %rbp
	.cfi_def_cfa_register 6
	subq	$32, %rsp
	movq	%rdi, -24(%rbp)
	movq	%fs:40, %rax
	movq	%rax, -8(%rbp)
	xorl	%eax, %eax
	movq	-24(%rbp), %rdx
	leaq	-16(%rbp), %rax
	movq	%rdx, %rsi
	movq	%rax, %rdi
	call	_ZN9__gnu_cxx17__normal_iteratorIPKdSt6vectorIdSaIdEEEC1ERKS2_
	movq	-16(%rbp), %rax
	movq	-8(%rbp), %rdx
	subq	%fs:40, %rdx
	je	.L34
	call	__stack_chk_fail@PLT
.L34:
	leave
	.cfi_def_cfa 7, 8
	ret
	.cfi_endproc
.LFE4144:
	.size	_ZNKSt6vectorIdSaIdEE5beginEv, .-_ZNKSt6vectorIdSaIdEE5beginEv
	.section	.text._ZNKSt6vectorIdSaIdEE3endEv,"axG",@progbits,_ZNKSt6vectorIdSaIdEE3endEv,comdat
	.align 2
	.weak	_ZNKSt6vectorIdSaIdEE3endEv
	.type	_ZNKSt6vectorIdSaIdEE3endEv, @function
_ZNKSt6vectorIdSaIdEE3endEv:
.LFB4145:
	.cfi_startproc
	endbr64
	pushq	%rbp
	.cfi_def_cfa_offset 16
	.cfi_offset 6, -16
	movq	%rsp, %rbp
	.cfi_def_cfa_register 6
	subq	$32, %rsp
	movq	%rdi, -24(%rbp)
	movq	%fs:40, %rax
	movq	%rax, -8(%rbp)
	xorl	%eax, %eax
	movq	-24(%rbp), %rax
	leaq	8(%rax), %rdx
	leaq	-16(%rbp), %rax
	movq	%rdx, %rsi
	movq	%rax, %rdi
	call	_ZN9__gnu_cxx17__normal_iteratorIPKdSt6vectorIdSaIdEEEC1ERKS2_
	movq	-16(%rbp), %rax
	movq	-8(%rbp), %rdx
	subq	%fs:40, %rdx
	je	.L37
	call	__stack_chk_fail@PLT
.L37:
	leave
	.cfi_def_cfa 7, 8
	ret
	.cfi_endproc
.LFE4145:
	.size	_ZNKSt6vectorIdSaIdEE3endEv, .-_ZNKSt6vectorIdSaIdEE3endEv
	.text
	.type	_ZSt10accumulateIN9__gnu_cxx17__normal_iteratorIPKdSt6vectorIdSaIdEEEEdZ14sum_of_squaresRKS6_EUlddE_ET0_T_SC_SB_T1_, @function
_ZSt10accumulateIN9__gnu_cxx17__normal_iteratorIPKdSt6vectorIdSaIdEEEEdZ14sum_of_squaresRKS6_EUlddE_ET0_T_SC_SB_T1_:
.LFB4146:
	.cfi_startproc
	pushq	%rbp
	.cfi_def_cfa_offset 16
	.cfi_offset 6, -16
	movq	%rsp, %rbp
	.cfi_def_cfa_register 6
	subq	$32, %rsp
	movq	%rdi, -8(%rbp)
	movq	%rsi, -16(%rbp)
	movsd	%xmm0, -24(%rbp)
	jmp	.L39
.L40:
	leaq	-8(%rbp), %rax
	movq	%rax, %rdi
	call	_ZNK9__gnu_cxx17__normal_iteratorIPKdSt6vectorIdSaIdEEEdeEv
	movsd	(%rax), %xmm0
	movq	-24(%rbp), %rdx
	leaq	-25(%rbp), %rax
	movapd	%xmm0, %xmm1
	movq	%rdx, %xmm0
	movq	%rax, %rdi
	call	_ZZ14sum_of_squaresRKSt6vectorIdSaIdEEENKUlddE_clEdd
	movq	%xmm0, %rax
	movq	%rax, -24(%rbp)
	leaq	-8(%rbp), %rax
	movq	%rax, %rdi
	call	_ZN9__gnu_cxx17__normal_iteratorIPKdSt6vectorIdSaIdEEEppEv
.L39:
	leaq	-16(%rbp), %rdx
	leaq	-8(%rbp), %rax
	movq	%rdx, %rsi
	movq	%rax, %rdi
	call	_ZN9__gnu_cxxneIPKdSt6vectorIdSaIdEEEEbRKNS_17__normal_iteratorIT_T0_EESB_
	testb	%al, %al
	jne	.L40
	movsd	-24(%rbp), %xmm0
	movq	%xmm0, %rax
	movq	%rax, %xmm0
	leave
	.cfi_def_cfa 7, 8
	ret
	.cfi_endproc
.LFE4146:
	.size	_ZSt10accumulateIN9__gnu_cxx17__normal_iteratorIPKdSt6vectorIdSaIdEEEEdZ14sum_of_squaresRKS6_EUlddE_ET0_T_SC_SB_T1_, .-_ZSt10accumulateIN9__gnu_cxx17__normal_iteratorIPKdSt6vectorIdSaIdEEEEdZ14sum_of_squaresRKS6_EUlddE_ET0_T_SC_SB_T1_
	.section	.text._ZSt11max_elementIN9__gnu_cxx17__normal_iteratorIPKdSt6vectorIdSaIdEEEEET_S8_S8_,"axG",@progbits,_ZSt11max_elementIN9__gnu_cxx17__normal_iteratorIPKdSt6vectorIdSaIdEEEEET_S8_S8_,comdat
	.weak	_ZSt11max_elementIN9__gnu_cxx17__normal_iteratorIPKdSt6vectorIdSaIdEEEEET_S8_S8_
	.type	_ZSt11max_elementIN9__gnu_cxx17__normal_iteratorIPKdSt6vectorIdSaIdEEEEET_S8_S8_, @function
_ZSt11max_elementIN9__gnu_cxx17__normal_iteratorIPKdSt6vectorIdSaIdEEEEET_S8_S8_:
.LFB4147:
	.cfi_startproc
	endbr64
	pushq	%rbp
	.cfi_def_cfa_offset 16
	.cfi_offset 6, -16
	movq	%rsp, %rbp
	.cfi_def_cfa_register 6
	subq	$16, %rsp
	movq	%rdi, -8(%rbp)
	movq	%rsi, -16(%rbp)
	call	_ZN9__gnu_cxx5__ops16__iter_less_iterEv
	movq	-16(%rbp), %rdx
	movq	-8(%rbp), %rax
	movq	%rdx, %rsi
	movq	%rax, %rdi
	call	_ZSt13__max_elementIN9__gnu_cxx17__normal_iteratorIPKdSt6vectorIdSaIdEEEENS0_5__ops15_Iter_less_iterEET_SA_SA_T0_
	leave
	.cfi_def_cfa 7, 8
	ret
	.cfi_endproc
.LFE4147:
	.size	_ZSt11max_elementIN9__gnu_cxx17__normal_iteratorIPKdSt6vectorIdSaIdEEEEET_S8_S8_, .-_ZSt11max_elementIN9__gnu_cxx17__normal_iteratorIPKdSt6vectorIdSaIdEEEEET_S8_S8_
	.section	.text._ZNK9__gnu_cxx17__normal_iteratorIPKdSt6vectorIdSaIdEEEdeEv,"axG",@progbits,_ZNK9__gnu_cxx17__normal_iteratorIPKdSt6vectorIdSaIdEEEdeEv,comdat
	.align 2
	.weak	_ZNK9__gnu_cxx17__normal_iteratorIPKdSt6vectorIdSaIdEEEdeEv
	.type	_ZNK9__gnu_cxx17__normal_iteratorIPKdSt6vectorIdSaIdEEEdeEv, @function
_ZNK9__gnu_cxx17__normal_iteratorIPKdSt6vectorIdSaIdEEEdeEv:
.LFB4148:
	.cfi_startproc
	endbr64
	pushq	%rbp
	.cfi_def_cfa_offset 16
	.cfi_offset 6, -16
	movq	%rsp, %rbp
	.cfi_def_cfa_register 6
	movq	%rdi, -8(%rbp)
	movq	-8(%rbp), %rax
	movq	(%rax), %rax
	popq	%rbp
	.cfi_def_cfa 7, 8
	ret
	.cfi_endproc
.LFE4148:
	.size	_ZNK9__gnu_cxx17__normal_iteratorIPKdSt6vectorIdSaIdEEEdeEv, .-_ZNK9__gnu_cxx17__normal_iteratorIPKdSt6vectorIdSaIdEEEdeEv
	.section	.text._ZSt10accumulateIN9__gnu_cxx17__normal_iteratorIPKdSt6vectorIdSaIdEEEEdET0_T_S9_S8_,"axG",@progbits,_ZSt10accumulateIN9__gnu_cxx17__normal_iteratorIPKdSt6vectorIdSaIdEEEEdET0_T_S9_S8_,comdat
	.weak	_ZSt10accumulateIN9__gnu_cxx17__normal_iteratorIPKdSt6vectorIdSaIdEEEEdET0_T_S9_S8_
	.type	_ZSt10accumulateIN9__gnu_cxx17__normal_iteratorIPKdSt6vectorIdSaIdEEEEdET0_T_S9_S8_, @function
_ZSt10accumulateIN9__gnu_cxx17__normal_iteratorIPKdSt6vectorIdSaIdEEEEdET0_T_S9_S8_:
.LFB4149:
	.cfi_startproc
	endbr64
	pushq	%rbp
	.cfi_def_cfa_offset 16
	.cfi_offset 6, -16
	movq	%rsp, %rbp
	.cfi_def_cfa_register 6
	subq	$32, %rsp
	movq	%rdi, -8(%rbp)
	movq	%rsi, -16(%rbp)
	movsd	%xmm0, -24(%rbp)
	jmp	.L47
.L48:
	leaq	-8(%rbp), %rax
	movq	%rax, %rdi
	call	_ZNK9__gnu_cxx17__normal_iteratorIPKdSt6vectorIdSaIdEEEdeEv
	movsd	(%rax), %xmm0
	movsd	-24(%rbp), %xmm1
	addsd	%xmm1, %xmm0
	movsd	%xmm0, -24(%rbp)
	leaq	-8(%rbp), %rax
	movq	%rax, %rdi
	call	_ZN9__gnu_cxx17__normal_iteratorIPKdSt6vectorIdSaIdEEEppEv
.L47:
	leaq	-16(%rbp), %rdx
	leaq	-8(%rbp), %rax
	movq	%rdx, %rsi
	movq	%rax, %rdi
	call	_ZN9__gnu_cxxneIPKdSt6vectorIdSaIdEEEEbRKNS_17__normal_iteratorIT_T0_EESB_
	testb	%al, %al
	jne	.L48
	movsd	-24(%rbp), %xmm0
	movq	%xmm0, %rax
	movq	%rax, %xmm0
	leave
	.cfi_def_cfa 7, 8
	ret
	.cfi_endproc
.LFE4149:
	.size	_ZSt10accumulateIN9__gnu_cxx17__normal_iteratorIPKdSt6vectorIdSaIdEEEEdET0_T_S9_S8_, .-_ZSt10accumulateIN9__gnu_cxx17__normal_iteratorIPKdSt6vectorIdSaIdEEEEdET0_T_S9_S8_
	.section	.text._ZNKSt6vectorIdSaIdEE4sizeEv,"axG",@progbits,_ZNKSt6vectorIdSaIdEE4sizeEv,comdat
	.align 2
	.weak	_ZNKSt6vectorIdSaIdEE4sizeEv
	.type	_ZNKSt6vectorIdSaIdEE4sizeEv, @function
_ZNKSt6vectorIdSaIdEE4sizeEv:
.LFB4150:
	.cfi_startproc
	endbr64
	pushq	%rbp
	.cfi_def_cfa_offset 16
	.cfi_offset 6, -16
	movq	%rsp, %rbp
	.cfi_def_cfa_register 6
	movq	%rdi, -8(%rbp)
	movq	-8(%rbp), %rax
	movq	8(%rax), %rdx
	movq	-8(%rbp), %rax
	movq	(%rax), %rcx
	movq	%rdx, %rax
	subq	%rcx, %rax
	sarq	$3, %rax
	popq	%rbp
	.cfi_def_cfa 7, 8
	ret
	.cfi_endproc
.LFE4150:
	.size	_ZNKSt6vectorIdSaIdEE4sizeEv, .-_ZNKSt6vectorIdSaIdEE4sizeEv
	.section	.text._ZNSaIdEC2Ev,"axG",@progbits,_ZNSaIdEC5Ev,comdat
	.align 2
	.weak	_ZNSaIdEC2Ev
	.type	_ZNSaIdEC2Ev, @function
_ZNSaIdEC2Ev:
.LFB4152:
	.cfi_startproc
	endbr64
	pushq	%rbp
	.cfi_def_cfa_offset 16
	.cfi_offset 6, -16
	movq	%rsp, %rbp
	.cfi_def_cfa_register 6
	subq	$16, %rsp
	movq	%rdi, -8(%rbp)
	movq	-8(%rbp), %rax
	movq	%rax, %rdi
	call	_ZN9__gnu_cxx13new_allocatorIdEC2Ev
	nop
	leave
	.cfi_def_cfa 7, 8
	ret
	.cfi_endproc
.LFE4152:
	.size	_ZNSaIdEC2Ev, .-_ZNSaIdEC2Ev
	.weak	_ZNSaIdEC1Ev
	.set	_ZNSaIdEC1Ev,_ZNSaIdEC2Ev
	.section	.text._ZNSaIdED2Ev,"axG",@progbits,_ZNSaIdED5Ev,comdat
	.align 2
	.weak	_ZNSaIdED2Ev
	.type	_ZNSaIdED2Ev, @function
_ZNSaIdED2Ev:
.LFB4155:
	.cfi_startproc
	endbr64
	pushq	%rbp
	.cfi_def_cfa_offset 16
	.cfi_offset 6, -16
	movq	%rsp, %rbp
	.cfi_def_cfa_register 6
	subq	$16, %rsp
	movq	%rdi, -8(%rbp)
	movq	-8(%rbp), %rax
	movq	%rax, %rdi
	call	_ZN9__gnu_cxx13new_allocatorIdED2Ev
	nop
	leave
	.cfi_def_cfa 7, 8
	ret
	.cfi_endproc
.LFE4155:
	.size	_ZNSaIdED2Ev, .-_ZNSaIdED2Ev
	.weak	_ZNSaIdED1Ev
	.set	_ZNSaIdED1Ev,_ZNSaIdED2Ev
	.section	.text._ZNSt6vectorIdSaIdEEC2EmRKS0_,"axG",@progbits,_ZNSt6vectorIdSaIdEEC5EmRKS0_,comdat
	.align 2
	.weak	_ZNSt6vectorIdSaIdEEC2EmRKS0_
	.type	_ZNSt6vectorIdSaIdEEC2EmRKS0_, @function
_ZNSt6vectorIdSaIdEEC2EmRKS0_:
.LFB4158:
	.cfi_startproc
	.cfi_personality 0x9b,DW.ref.__gxx_personality_v0
	.cfi_lsda 0x1b,.LLSDA4158
	endbr64
	pushq	%rbp
	.cfi_def_cfa_offset 16
	.cfi_offset 6, -16
	movq	%rsp, %rbp
	.cfi_def_cfa_register 6
	pushq	%rbx
	subq	$40, %rsp
	.cfi_offset 3, -24
	movq	%rdi, -24(%rbp)
	movq	%rsi, -32(%rbp)
	movq	%rdx, -40(%rbp)
	movq	-24(%rbp), %rbx
	movq	-40(%rbp), %rdx
	movq	-32(%rbp), %rax
	movq	%rdx, %rsi
	movq	%rax, %rdi
.LEHB3:
	call	_ZNSt6vectorIdSaIdEE17_S_check_init_lenEmRKS0_
	movq	%rax, %rcx
	movq	-40(%rbp), %rax
	movq	%rax, %rdx
	movq	%rcx, %rsi
	movq	%rbx, %rdi
	call	_ZNSt12_Vector_baseIdSaIdEEC2EmRKS0_
.LEHE3:
	movq	-32(%rbp), %rdx
	movq	-24(%rbp), %rax
	movq	%rdx, %rsi
	movq	%rax, %rdi
.LEHB4:
	call	_ZNSt6vectorIdSaIdEE21_M_default_initializeEm
.LEHE4:
	jmp	.L57
.L56:
	endbr64
	movq	%rax, %rbx
	movq	-24(%rbp), %rax
	movq	%rax, %rdi
	call	_ZNSt12_Vector_baseIdSaIdEED2Ev
	movq	%rbx, %rax
	movq	%rax, %rdi
.LEHB5:
	call	_Unwind_Resume@PLT
.LEHE5:
.L57:
	movq	-8(%rbp), %rbx
	leave
	.cfi_def_cfa 7, 8
	ret
	.cfi_endproc
.LFE4158:
	.section	.gcc_except_table
.LLSDA4158:
	.byte	0xff
	.byte	0xff
	.byte	0x1
	.uleb128 .LLSDACSE4158-.LLSDACSB4158
.LLSDACSB4158:
	.uleb128 .LEHB3-.LFB4158
	.uleb128 .LEHE3-.LEHB3
	.uleb128 0
	.uleb128 0
	.uleb128 .LEHB4-.LFB4158
	.uleb128 .LEHE4-.LEHB4
	.uleb128 .L56-.LFB4158
	.uleb128 0
	.uleb128 .LEHB5-.LFB4158
	.uleb128 .LEHE5-.LEHB5
	.uleb128 0
	.uleb128 0
.LLSDACSE4158:
	.section	.text._ZNSt6vectorIdSaIdEEC2EmRKS0_,"axG",@progbits,_ZNSt6vectorIdSaIdEEC5EmRKS0_,comdat
	.size	_ZNSt6vectorIdSaIdEEC2EmRKS0_, .-_ZNSt6vectorIdSaIdEEC2EmRKS0_
	.weak	_ZNSt6vectorIdSaIdEEC1EmRKS0_
	.set	_ZNSt6vectorIdSaIdEEC1EmRKS0_,_ZNSt6vectorIdSaIdEEC2EmRKS0_
	.section	.text._ZNSt6vectorIdSaIdEED2Ev,"axG",@progbits,_ZNSt6vectorIdSaIdEED5Ev,comdat
	.align 2
	.weak	_ZNSt6vectorIdSaIdEED2Ev
	.type	_ZNSt6vectorIdSaIdEED2Ev, @function
_ZNSt6vectorIdSaIdEED2Ev:
.LFB4161:
	.cfi_startproc
	.cfi_personality 0x9b,DW.ref.__gxx_personality_v0
	.cfi_lsda 0x1b,.LLSDA4161
	endbr64
	pushq	%rbp
	.cfi_def_cfa_offset 16
	.cfi_offset 6, -16
	movq	%rsp, %rbp
	.cfi_def_cfa_register 6
	subq	$16, %rsp
	movq	%rdi, -8(%rbp)
	movq	-8(%rbp), %rax
	movq	%rax, %rdi
	call	_ZNSt12_Vector_baseIdSaIdEE19_M_get_Tp_allocatorEv
	movq	%rax, %rdx
	movq	-8(%rbp), %rax
	movq	8(%rax), %rcx
	movq	-8(%rbp), %rax
	movq	(%rax), %rax
	movq	%rcx, %rsi
	movq	%rax, %rdi
	call	_ZSt8_DestroyIPddEvT_S1_RSaIT0_E
	movq	-8(%rbp), %rax
	movq	%rax, %rdi
	call	_ZNSt12_Vector_baseIdSaIdEED2Ev
	nop
	leave
	.cfi_def_cfa 7, 8
	ret
	.cfi_endproc
.LFE4161:
	.section	.gcc_except_table
.LLSDA4161:
	.byte	0xff
	.byte	0xff
	.byte	0x1
	.uleb128 .LLSDACSE4161-.LLSDACSB4161
.LLSDACSB4161:
.LLSDACSE4161:
	.section	.text._ZNSt6vectorIdSaIdEED2Ev,"axG",@progbits,_ZNSt6vectorIdSaIdEED5Ev,comdat
	.size	_ZNSt6vectorIdSaIdEED2Ev, .-_ZNSt6vectorIdSaIdEED2Ev
	.weak	_ZNSt6vectorIdSaIdEED1Ev
	.set	_ZNSt6vectorIdSaIdEED1Ev,_ZNSt6vectorIdSaIdEED2Ev
	.section	.text._ZNSt6vectorIdSaIdEE5beginEv,"axG",@progbits,_ZNSt6vectorIdSaIdEE5beginEv,comdat
	.align 2
	.weak	_ZNSt6vectorIdSaIdEE5beginEv
	.type	_ZNSt6vectorIdSaIdEE5beginEv, @function
_ZNSt6vectorIdSaIdEE5beginEv:
.LFB4163:
	.cfi_startproc
	endbr64
	pushq	%rbp
	.cfi_def_cfa_offset 16
	.cfi_offset 6, -16
	movq	%rsp, %rbp
	.cfi_def_cfa_register 6
	subq	$32, %rsp
	movq	%rdi, -24(%rbp)
	movq	%fs:40, %rax
	movq	%rax, -8(%rbp)
	xorl	%eax, %eax
	movq	-24(%rbp), %rdx
	leaq	-16(%rbp), %rax
	movq	%rdx, %rsi
	movq	%rax, %rdi
	call	_ZN9__gnu_cxx17__normal_iteratorIPdSt6vectorIdSaIdEEEC1ERKS1_
	movq	-16(%rbp), %rax
	movq	-8(%rbp), %rdx
	subq	%fs:40, %rdx
	je	.L61
	call	__stack_chk_fail@PLT
.L61:
	leave
	.cfi_def_cfa 7, 8
	ret
	.cfi_endproc
.LFE4163:
	.size	_ZNSt6vectorIdSaIdEE5beginEv, .-_ZNSt6vectorIdSaIdEE5beginEv
	.section	.text._ZNSt6vectorIdSaIdEE3endEv,"axG",@progbits,_ZNSt6vectorIdSaIdEE3endEv,comdat
	.align 2
	.weak	_ZNSt6vectorIdSaIdEE3endEv
	.type	_ZNSt6vectorIdSaIdEE3endEv, @function
_ZNSt6vectorIdSaIdEE3endEv:
.LFB4164:
	.cfi_startproc
	endbr64
	pushq	%rbp
	.cfi_def_cfa_offset 16
	.cfi_offset 6, -16
	movq	%rsp, %rbp
	.cfi_def_cfa_register 6
	subq	$32, %rsp
	movq	%rdi, -24(%rbp)
	movq	%fs:40, %rax
	movq	%rax, -8(%rbp)
	xorl	%eax, %eax
	movq	-24(%rbp), %rax
	leaq	8(%rax), %rdx
	leaq	-16(%rbp), %rax
	movq	%rdx, %rsi
	movq	%rax, %rdi
	call	_ZN9__gnu_cxx17__normal_iteratorIPdSt6vectorIdSaIdEEEC1ERKS1_
	movq	-16(%rbp), %rax
	movq	-8(%rbp), %rdx
	subq	%fs:40, %rdx
	je	.L64
	call	__stack_chk_fail@PLT
.L64:
	leave
	.cfi_def_cfa 7, 8
	ret
	.cfi_endproc
.LFE4164:
	.size	_ZNSt6vectorIdSaIdEE3endEv, .-_ZNSt6vectorIdSaIdEE3endEv
	.section	.text._ZSt4iotaIN9__gnu_cxx17__normal_iteratorIPdSt6vectorIdSaIdEEEEdEvT_S7_T0_,"axG",@progbits,_ZSt4iotaIN9__gnu_cxx17__normal_iteratorIPdSt6vectorIdSaIdEEEEdEvT_S7_T0_,comdat
	.weak	_ZSt4iotaIN9__gnu_cxx17__normal_iteratorIPdSt6vectorIdSaIdEEEEdEvT_S7_T0_
	.type	_ZSt4iotaIN9__gnu_cxx17__normal_iteratorIPdSt6vectorIdSaIdEEEEdEvT_S7_T0_, @function
_ZSt4iotaIN9__gnu_cxx17__normal_iteratorIPdSt6vectorIdSaIdEEEEdEvT_S7_T0_:
.LFB4165:
	.cfi_startproc
	endbr64
	pushq	%rbp
	.cfi_def_cfa_offset 16
	.cfi_offset 6, -16
	movq	%rsp, %rbp
	.cfi_def_cfa_register 6
	subq	$32, %rsp
	movq	%rdi, -8(%rbp)
	movq	%rsi, -16(%rbp)
	movsd	%xmm0, -24(%rbp)
	jmp	.L66
.L67:
	movsd	-24(%rbp), %xmm2
	movsd	%xmm2, -32(%rbp)
	leaq	-8(%rbp), %rax
	movq	%rax, %rdi
	call	_ZNK9__gnu_cxx17__normal_iteratorIPdSt6vectorIdSaIdEEEdeEv
	movsd	-32(%rbp), %xmm2
	movsd	%xmm2, (%rax)
	movsd	-24(%rbp), %xmm1
	movsd	.LC1(%rip), %xmm0
	addsd	%xmm1, %xmm0
	movsd	%xmm0, -24(%rbp)
	leaq	-8(%rbp), %rax
	movq	%rax, %rdi
	call	_ZN9__gnu_cxx17__normal_iteratorIPdSt6vectorIdSaIdEEEppEv
.L66:
	leaq	-16(%rbp), %rdx
	leaq	-8(%rbp), %rax
	movq	%rdx, %rsi
	movq	%rax, %rdi
	call	_ZN9__gnu_cxxneIPdSt6vectorIdSaIdEEEEbRKNS_17__normal_iteratorIT_T0_EESA_
	testb	%al, %al
	jne	.L67
	nop
	nop
	leave
	.cfi_def_cfa 7, 8
	ret
	.cfi_endproc
.LFE4165:
	.size	_ZSt4iotaIN9__gnu_cxx17__normal_iteratorIPdSt6vectorIdSaIdEEEEdEvT_S7_T0_, .-_ZSt4iotaIN9__gnu_cxx17__normal_iteratorIPdSt6vectorIdSaIdEEEEdEvT_S7_T0_
	.section	.text._ZN9__gnu_cxx17__normal_iteratorIPKdSt6vectorIdSaIdEEEC2ERKS2_,"axG",@progbits,_ZN9__gnu_cxx17__normal_iteratorIPKdSt6vectorIdSaIdEEEC5ERKS2_,comdat
	.align 2
	.weak	_ZN9__gnu_cxx17__normal_iteratorIPKdSt6vectorIdSaIdEEEC2ERKS2_
	.type	_ZN9__gnu_cxx17__normal_iteratorIPKdSt6vectorIdSaIdEEEC2ERKS2_, @function
_ZN9__gnu_cxx17__normal_iteratorIPKdSt6vectorIdSaIdEEEC2ERKS2_:
.LFB4301:
	.cfi_startproc
	endbr64
	pushq	%rbp
	.cfi_def_cfa_offset 16
	.cfi_offset 6, -16
	movq	%rsp, %rbp
	.cfi_def_cfa_register 6
	movq	%rdi, -8(%rbp)
	movq	%rsi, -16(%rbp)
	movq	-16(%rbp), %rax
	movq	(%rax), %rdx
	movq	-8(%rbp), %rax
	movq	%rdx, (%rax)
	nop
	popq	%rbp
	.cfi_def_cfa 7, 8
	ret
	.cfi_endproc
.LFE4301:
	.size	_ZN9__gnu_cxx17__normal_iteratorIPKdSt6vectorIdSaIdEEEC2ERKS2_, .-_ZN9__gnu_cxx17__normal_iteratorIPKdSt6vectorIdSaIdEEEC2ERKS2_
	.weak	_ZN9__gnu_cxx17__normal_iteratorIPKdSt6vectorIdSaIdEEEC1ERKS2_
	.set	_ZN9__gnu_cxx17__normal_iteratorIPKdSt6vectorIdSaIdEEEC1ERKS2_,_ZN9__gnu_cxx17__normal_iteratorIPKdSt6vectorIdSaIdEEEC2ERKS2_
	.section	.text._ZN9__gnu_cxxneIPKdSt6vectorIdSaIdEEEEbRKNS_17__normal_iteratorIT_T0_EESB_,"axG",@progbits,_ZN9__gnu_cxxneIPKdSt6vectorIdSaIdEEEEbRKNS_17__normal_iteratorIT_T0_EESB_,comdat
	.weak	_ZN9__gnu_cxxneIPKdSt6vectorIdSaIdEEEEbRKNS_17__normal_iteratorIT_T0_EESB_
	.type	_ZN9__gnu_cxxneIPKdSt6vectorIdSaIdEEEEbRKNS_17__normal_iteratorIT_T0_EESB_, @function
_ZN9__gnu_cxxneIPKdSt6vectorIdSaIdEEEEbRKNS_17__normal_iteratorIT_T0_EESB_:
.LFB4303:
	.cfi_startproc
	endbr64
	pushq	%rbp
	.cfi_def_cfa_offset 16
	.cfi_offset 6, -16
	movq	%rsp, %rbp
	.cfi_def_cfa_register 6
	pushq	%rbx
	subq	$24, %rsp
	.cfi_offset 3, -24
	movq	%rdi, -24(%rbp)
	movq	%rsi, -32(%rbp)
	movq	-24(%rbp), %rax
	movq	%rax, %rdi
	call	_ZNK9__gnu_cxx17__normal_iteratorIPKdSt6vectorIdSaIdEEE4baseEv
	movq	(%rax), %rbx
	movq	-32(%rbp), %rax
	movq	%rax, %rdi
	call	_ZNK9__gnu_cxx17__normal_iteratorIPKdSt6vectorIdSaIdEEE4baseEv
	movq	(%rax), %rax
	cmpq	%rax, %rbx
	setne	%al
	movq	-8(%rbp), %rbx
	leave
	.cfi_def_cfa 7, 8
	ret
	.cfi_endproc
.LFE4303:
	.size	_ZN9__gnu_cxxneIPKdSt6vectorIdSaIdEEEEbRKNS_17__normal_iteratorIT_T0_EESB_, .-_ZN9__gnu_cxxneIPKdSt6vectorIdSaIdEEEEbRKNS_17__normal_iteratorIT_T0_EESB_
	.section	.text._ZN9__gnu_cxx17__normal_iteratorIPKdSt6vectorIdSaIdEEEppEv,"axG",@progbits,_ZN9__gnu_cxx17__normal_iteratorIPKdSt6vectorIdSaIdEEEppEv,comdat
	.align 2
	.weak	_ZN9__gnu_cxx17__normal_iteratorIPKdSt6vectorIdSaIdEEEppEv
	.type	_ZN9__gnu_cxx17__normal_iteratorIPKdSt6vectorIdSaIdEEEppEv, @function
_ZN9__gnu_cxx17__normal_iteratorIPKdSt6vectorIdSaIdEEEppEv:
.LFB4304:
	.cfi_startproc
	endbr64
	pushq	%rbp
	.cfi_def_cfa_offset 16
	.cfi_offset 6, -16
	movq	%rsp, %rbp
	.cfi_def_cfa_register 6
	movq	%rdi, -8(%rbp)
	movq	-8(%rbp), %rax
	movq	(%rax), %rax
	leaq	8(%rax), %rdx
	movq	-8(%rbp), %rax
	movq	%rdx, (%rax)
	movq	-8(%rbp), %rax
	popq	%rbp
	.cfi_def_cfa 7, 8
	ret
	.cfi_endproc
.LFE4304:
	.size	_ZN9__gnu_cxx17__normal_iteratorIPKdSt6vectorIdSaIdEEEppEv, .-_ZN9__gnu_cxx17__normal_iteratorIPKdSt6vectorIdSaIdEEEppEv
	.section	.text._ZNK9__gnu_cxx5__ops15_Iter_less_iterclINS_17__normal_iteratorIPKdSt6vectorIdSaIdEEEES9_EEbT_T0_,"axG",@progbits,_ZNK9__gnu_cxx5__ops15_Iter_less_iterclINS_17__normal_iteratorIPKdSt6vectorIdSaIdEEEES9_EEbT_T0_,comdat
	.align 2
	.weak	_ZNK9__gnu_cxx5__ops15_Iter_less_iterclINS_17__normal_iteratorIPKdSt6vectorIdSaIdEEEES9_EEbT_T0_
	.type	_ZNK9__gnu_cxx5__ops15_Iter_less_iterclINS_17__normal_iteratorIPKdSt6vectorIdSaIdEEEES9_EEbT_T0_, @function
_ZNK9__gnu_cxx5__ops15_Iter_less_iterclINS_17__normal_iteratorIPKdSt6vectorIdSaIdEEEES9_EEbT_T0_:
.LFB4306:
	.cfi_startproc
	endbr64
	pushq	%rbp
	.cfi_def_cfa_offset 16
	.cfi_offset 6, -16
	movq	%rsp, %rbp
	.cfi_def_cfa_register 6
	subq	$32, %rsp
	movq	%rdi, -8(%rbp)
	movq	%rsi, -16(%rbp)
	movq	%rdx, -24(%rbp)
	leaq	-16(%rbp), %rax
	movq	%rax, %rdi
	call	_ZNK9__gnu_cxx17__normal_iteratorIPKdSt6vectorIdSaIdEEEdeEv
	movsd	(%rax), %xmm1
	movsd	%xmm1, -32(%rbp)
	leaq	-24(%rbp), %rax
	movq	%rax, %rdi
	call	_ZNK9__gnu_cxx17__normal_iteratorIPKdSt6vectorIdSaIdEEEdeEv
	movsd	(%rax), %xmm0
	comisd	-32(%rbp), %xmm0
	seta	%al
	leave
	.cfi_def_cfa 7, 8
	ret
	.cfi_endproc
.LFE4306:
	.size	_ZNK9__gnu_cxx5__ops15_Iter_less_iterclINS_17__normal_iteratorIPKdSt6vectorIdSaIdEEEES9_EEbT_T0_, .-_ZNK9__gnu_cxx5__ops15_Iter_less_iterclINS_17__normal_iteratorIPKdSt6vectorIdSaIdEEEES9_EEbT_T0_
	.section	.text._ZSt13__max_elementIN9__gnu_cxx17__normal_iteratorIPKdSt6vectorIdSaIdEEEENS0_5__ops15_Iter_less_iterEET_SA_SA_T0_,"axG",@progbits,_ZSt13__max_elementIN9__gnu_cxx17__normal_iteratorIPKdSt6vectorIdSaIdEEEENS0_5__ops15_Iter_less_iterEET_SA_SA_T0_,comdat
	.weak	_ZSt13__max_elementIN9__gnu_cxx17__normal_iteratorIPKdSt6vectorIdSaIdEEEENS0_5__ops15_Iter_less_iterEET_SA_SA_T0_
	.type	_ZSt13__max_elementIN9__gnu_cxx17__normal_iteratorIPKdSt6vectorIdSaIdEEEENS0_5__ops15_Iter_less_iterEET_SA_SA_T0_, @function
_ZSt13__max_elementIN9__gnu_cxx17__normal_iteratorIPKdSt6vectorIdSaIdEEEENS0_5__ops15_Iter_less_iterEET_SA_SA_T0_:
.LFB4305:
	.cfi_startproc
	endbr64
	pushq	%rbp
	.cfi_def_cfa_offset 16
	.cfi_offset 6, -16
	movq	%rsp, %rbp
	.cfi_def_cfa_register 6
	subq	$48, %rsp
	movq	%rdi, -24(%rbp)
	movq	%rsi, -32(%rbp)
	movq	%fs:40, %rax
	movq	%rax, -8(%rbp)
	xorl	%eax, %eax
	leaq	-32(%rbp), %rdx
	leaq	-24(%rbp), %rax
	movq	%rdx, %rsi
	movq	%rax, %rdi
	call	_ZN9__gnu_cxxeqIPKdSt6vectorIdSaIdEEEEbRKNS_17__normal_iteratorIT_T0_EESB_
	testb	%al, %al
	je	.L76
	movq	-24(%rbp), %rax
	jmp	.L80
.L76:
	movq	-24(%rbp), %rax
	movq	%rax, -16(%rbp)
	jmp	.L78
.L79:
	movq	-24(%rbp), %rdx
	movq	-16(%rbp), %rcx
	leaq	-33(%rbp), %rax
	movq	%rcx, %rsi
	movq	%rax, %rdi
	call	_ZNK9__gnu_cxx5__ops15_Iter_less_iterclINS_17__normal_iteratorIPKdSt6vectorIdSaIdEEEES9_EEbT_T0_
	testb	%al, %al
	je	.L78
	movq	-24(%rbp), %rax
	movq	%rax, -16(%rbp)
.L78:
	leaq	-24(%rbp), %rax
	movq	%rax, %rdi
	call	_ZN9__gnu_cxx17__normal_iteratorIPKdSt6vectorIdSaIdEEEppEv
	movq	%rax, %rdx
	leaq	-32(%rbp), %rax
	movq	%rax, %rsi
	movq	%rdx, %rdi
	call	_ZN9__gnu_cxxneIPKdSt6vectorIdSaIdEEEEbRKNS_17__normal_iteratorIT_T0_EESB_
	testb	%al, %al
	jne	.L79
	movq	-16(%rbp), %rax
.L80:
	movq	-8(%rbp), %rdx
	subq	%fs:40, %rdx
	je	.L81
	call	__stack_chk_fail@PLT
.L81:
	leave
	.cfi_def_cfa 7, 8
	ret
	.cfi_endproc
.LFE4305:
	.size	_ZSt13__max_elementIN9__gnu_cxx17__normal_iteratorIPKdSt6vectorIdSaIdEEEENS0_5__ops15_Iter_less_iterEET_SA_SA_T0_, .-_ZSt13__max_elementIN9__gnu_cxx17__normal_iteratorIPKdSt6vectorIdSaIdEEEENS0_5__ops15_Iter_less_iterEET_SA_SA_T0_
	.section	.text._ZN9__gnu_cxx13new_allocatorIdEC2Ev,"axG",@progbits,_ZN9__gnu_cxx13new_allocatorIdEC5Ev,comdat
	.align 2
	.weak	_ZN9__gnu_cxx13new_allocatorIdEC2Ev
	.type	_ZN9__gnu_cxx13new_allocatorIdEC2Ev, @function
_ZN9__gnu_cxx13new_allocatorIdEC2Ev:
.LFB4308:
	.cfi_startproc
	endbr64
	pushq	%rbp
	.cfi_def_cfa_offset 16
	.cfi_offset 6, -16
	movq	%rsp, %rbp
	.cfi_def_cfa_register 6
	movq	%rdi, -8(%rbp)
	nop
	popq	%rbp
	.cfi_def_cfa 7, 8
	ret
	.cfi_endproc
.LFE4308:
	.size	_ZN9__gnu_cxx13new_allocatorIdEC2Ev, .-_ZN9__gnu_cxx13new_allocatorIdEC2Ev
	.weak	_ZN9__gnu_cxx13new_allocatorIdEC1Ev
	.set	_ZN9__gnu_cxx13new_allocatorIdEC1Ev,_ZN9__gnu_cxx13new_allocatorIdEC2Ev
	.section	.text._ZN9__gnu_cxx13new_allocatorIdED2Ev,"axG",@progbits,_ZN9__gnu_cxx13new_allocatorIdED5Ev,comdat
	.align 2
	.weak	_ZN9__gnu_cxx13new_allocatorIdED2Ev
	.type	_ZN9__gnu_cxx13new_allocatorIdED2Ev, @function
_ZN9__gnu_cxx13new_allocatorIdED2Ev:
.LFB4311:
	.cfi_startproc
	endbr64
	pushq	%rbp
	.cfi_def_cfa_offset 16
	.cfi_offset 6, -16
	movq	%rsp, %rbp
	.cfi_def_cfa_register 6
	movq	%rdi, -8(%rbp)
	nop
	popq	%rbp
	.cfi_def_cfa 7, 8
	ret
	.cfi_endproc
.LFE4311:
	.size	_ZN9__gnu_cxx13new_allocatorIdED2Ev, .-_ZN9__gnu_cxx13new_allocatorIdED2Ev
	.weak	_ZN9__gnu_cxx13new_allocatorIdED1Ev
	.set	_ZN9__gnu_cxx13new_allocatorIdED1Ev,_ZN9__gnu_cxx13new_allocatorIdED2Ev
	.section	.rodata
	.align 8
.LC7:
	.string	"cannot create std::vector larger than max_size()"
	.section	.text._ZNSt6vectorIdSaIdEE17_S_check_init_lenEmRKS0_,"axG",@progbits,_ZNSt6vectorIdSaIdEE17_S_check_init_lenEmRKS0_,comdat
	.weak	_ZNSt6vectorIdSaIdEE17_S_check_init_lenEmRKS0_
	.type	_ZNSt6vectorIdSaIdEE17_S_check_init_lenEmRKS0_, @function
_ZNSt6vectorIdSaIdEE17_S_check_init_lenEmRKS0_:
.LFB4313:
	.cfi_startproc
	endbr64
	pushq	%rbp
	.cfi_def_cfa_offset 16
	.cfi_offset 6, -16
	movq	%rsp, %rbp
	.cfi_def_cfa_register 6
	pushq	%rbx
	subq	$40, %rsp
	.cfi_offset 3, -24
	movq	%rdi, -40(%rbp)
	movq	%rsi, -48(%rbp)
	movq	%fs:40, %rax
	movq	%rax, -24(%rbp)
	xorl	%eax, %eax
	movq	-48(%rbp), %rdx
	leaq	-25(%rbp), %rax
	movq	%rdx, %rsi
	movq	%rax, %rdi
	call	_ZNSaIdEC1ERKS_
	leaq	-25(%rbp), %rax
	movq	%rax, %rdi
	call	_ZNSt6vectorIdSaIdEE11_S_max_sizeERKS0_
	cmpq	%rax, -40(%rbp)
	seta	%bl
	leaq	-25(%rbp), %rax
	movq	%rax, %rdi
	call	_ZNSaIdED1Ev
	testb	%bl, %bl
	je	.L85
	leaq	.LC7(%rip), %rax
	movq	%rax, %rdi
	call	_ZSt20__throw_length_errorPKc@PLT
.L85:
	movq	-40(%rbp), %rax
	movq	-24(%rbp), %rdx
	subq	%fs:40, %rdx
	je	.L87
	call	__stack_chk_fail@PLT
.L87:
	movq	-8(%rbp), %rbx
	leave
	.cfi_def_cfa 7, 8
	ret
	.cfi_endproc
.LFE4313:
	.size	_ZNSt6vectorIdSaIdEE17_S_check_init_lenEmRKS0_, .-_ZNSt6vectorIdSaIdEE17_S_check_init_lenEmRKS0_
	.section	.text._ZNSt12_Vector_baseIdSaIdEE12_Vector_implD2Ev,"axG",@progbits,_ZNSt12_Vector_baseIdSaIdEE12_Vector_implD5Ev,comdat
	.align 2
	.weak	_ZNSt12_Vector_baseIdSaIdEE12_Vector_implD2Ev
	.type	_ZNSt12_Vector_baseIdSaIdEE12_Vector_implD2Ev, @function
_ZNSt12_Vector_baseIdSaIdEE12_Vector_implD2Ev:
.LFB4316:
	.cfi_startproc
	endbr64
	pushq	%rbp
	.cfi_def_cfa_offset 16
	.cfi_offset 6, -16
	movq	%rsp, %rbp
	.cfi_def_cfa_register 6
	subq	$16, %rsp
	movq	%rdi, -8(%rbp)
	movq	-8(%rbp), %rax
	movq	%rax, %rdi
	call	_ZNSaIdED2Ev
	nop
	leave
	.cfi_def_cfa 7, 8
	ret
	.cfi_endproc
.LFE4316:
	.size	_ZNSt12_Vector_baseIdSaIdEE12_Vector_implD2Ev, .-_ZNSt12_Vector_baseIdSaIdEE12_Vector_implD2Ev
	.weak	_ZNSt12_Vector_baseIdSaIdEE12_Vector_implD1Ev
	.set	_ZNSt12_Vector_baseIdSaIdEE12_Vector_implD1Ev,_ZNSt12_Vector_baseIdSaIdEE12_Vector_implD2Ev
	.section	.text._ZNSt12_Vector_baseIdSaIdEEC2EmRKS0_,"axG",@progbits,_ZNSt12_Vector_baseIdSaIdEEC5EmRKS0_,comdat
	.align 2
	.weak	_ZNSt12_Vector_baseIdSaIdEEC2EmRKS0_
	.type	_ZNSt12_Vector_baseIdSaIdEEC2EmRKS0_, @function
_ZNSt12_Vector_baseIdSaIdEEC2EmRKS0_:
.LFB4318:
	.cfi_startproc
	.cfi_personality 0x9b,DW.ref.__gxx_personality_v0
	.cfi_lsda 0x1b,.LLSDA4318
	endbr64
	pushq	%rbp
	.cfi_def_cfa_offset 16
	.cfi_offset 6, -16
	movq	%rsp, %rbp
	.cfi_def_cfa_register 6
	pushq	%rbx
	subq	$40, %rsp
	.cfi_offset 3, -24
	movq	%rdi, -24(%rbp)
	movq	%rsi, -32(%rbp)
	movq	%rdx, -40(%rbp)
	movq	-24(%rbp), %rax
	movq	-40(%rbp), %rdx
	movq	%rdx, %rsi
	movq	%rax, %rdi
	call	_ZNSt12_Vector_baseIdSaIdEE12_Vector_implC1ERKS0_
	movq	-32(%rbp), %rdx
	movq	-24(%rbp), %rax
	movq	%rdx, %rsi
	movq	%rax, %rdi
.LEHB6:
	call	_ZNSt12_Vector_baseIdSaIdEE17_M_create_storageEm
.LEHE6:
	jmp	.L92
.L91:
	endbr64
	movq	%rax, %rbx
	movq	-24(%rbp), %rax
	movq	%rax, %rdi
	call	_ZNSt12_Vector_baseIdSaIdEE12_Vector_implD1Ev
	movq	%rbx, %rax
	movq	%rax, %rdi
.LEHB7:
	call	_Unwind_Resume@PLT
.LEHE7:
.L92:
	movq	-8(%rbp), %rbx
	leave
	.cfi_def_cfa 7, 8
	ret
	.cfi_endproc
.LFE4318:
	.section	.gcc_except_table
.LLSDA4318:
	.byte	0xff
	.byte	0xff
	.byte	0x1
	.uleb128 .LLSDACSE4318-.LLSDACSB4318
.LLSDACSB4318:
	.uleb128 .LEHB6-.LFB4318
	.uleb128 .LEHE6-.LEHB6
	.uleb128 .L91-.LFB4318
	.uleb128 0
	.uleb128 .LEHB7-.LFB4318
	.uleb128 .LEHE7-.LEHB7
	.uleb128 0
	.uleb128 0
.LLSDACSE4318:
	.section	.text._ZNSt12_Vector_baseIdSaIdEEC2EmRKS0_,"axG",@progbits,_ZNSt12_Vector_baseIdSaIdEEC5EmRKS0_,comdat
	.size	_ZNSt12_Vector_baseIdSaIdEEC2EmRKS0_, .-_ZNSt12_Vector_baseIdSaIdEEC2EmRKS0_
	.weak	_ZNSt12_Vector_baseIdSaIdEEC1EmRKS0_
	.set	_ZNSt12_Vector_baseIdSaIdEEC1EmRKS0_,_ZNSt12_Vector_baseIdSaIdEEC2EmRKS0_
	.section	.text._ZNSt12_Vector_baseIdSaIdEED2Ev,"axG",@progbits,_ZNSt12_Vector_baseIdSaIdEED5Ev,comdat
	.align 2
	.weak	_ZNSt12_Vector_baseIdSaIdEED2Ev
	.type	_ZNSt12_Vector_baseIdSaIdEED2Ev, @function
_ZNSt12_Vector_baseIdSaIdEED2Ev:
.LFB4321:
	.cfi_startproc
	.cfi_personality 0x9b,DW.ref.__gxx_personality_v0
	.cfi_lsda 0x1b,.LLSDA4321
	endbr64
	pushq	%rbp
	.cfi_def_cfa_offset 16
	.cfi_offset 6, -16
	movq	%rsp, %rbp
	.cfi_def_cfa_register 6
	subq	$16, %rsp
	movq	%rdi, -8(%rbp)
	movq	-8(%rbp), %rax
	movq	16(%rax), %rdx
	movq	-8(%rbp), %rax
	movq	(%rax), %rcx
	movq	%rdx, %rax
	subq	%rcx, %rax
	sarq	$3, %rax
	movq	%rax, %rdx
	movq	-8(%rbp), %rax
	movq	(%rax), %rcx
	movq	-8(%rbp), %rax
	movq	%rcx, %rsi
	movq	%rax, %rdi
	call	_ZNSt12_Vector_baseIdSaIdEE13_M_deallocateEPdm
	movq	-8(%rbp), %rax
	movq	%rax, %rdi
	call	_ZNSt12_Vector_baseIdSaIdEE12_Vector_implD1Ev
	nop
	leave
	.cfi_def_cfa 7, 8
	ret
	.cfi_endproc
.LFE4321:
	.section	.gcc_except_table
.LLSDA4321:
	.byte	0xff
	.byte	0xff
	.byte	0x1
	.uleb128 .LLSDACSE4321-.LLSDACSB4321
.LLSDACSB4321:
.LLSDACSE4321:
	.section	.text._ZNSt12_Vector_baseIdSaIdEED2Ev,"axG",@progbits,_ZNSt12_Vector_baseIdSaIdEED5Ev,comdat
	.size	_ZNSt12_Vector_baseIdSaIdEED2Ev, .-_ZNSt12_Vector_baseIdSaIdEED2Ev
	.weak	_ZNSt12_Vector_baseIdSaIdEED1Ev
	.set	_ZNSt12_Vector_baseIdSaIdEED1Ev,_ZNSt12_Vector_baseIdSaIdEED2Ev
	.section	.text._ZNSt6vectorIdSaIdEE21_M_default_initializeEm,"axG",@progbits,_ZNSt6vectorIdSaIdEE21_M_default_initializeEm,comdat
	.align 2
	.weak	_ZNSt6vectorIdSaIdEE21_M_default_initializeEm
	.type	_ZNSt6vectorIdSaIdEE21_M_default_initializeEm, @function
_ZNSt6vectorIdSaIdEE21_M_default_initializeEm:
.LFB4323:
	.cfi_startproc
	endbr64
	pushq	%rbp
	.cfi_def_cfa_offset 16
	.cfi_offset 6, -16
	movq	%rsp, %rbp
	.cfi_def_cfa_register 6
	subq	$16, %rsp
	movq	%rdi, -8(%rbp)
	movq	%rsi, -16(%rbp)
	movq	-8(%rbp), %rax
	movq	%rax, %rdi
	call	_ZNSt12_Vector_baseIdSaIdEE19_M_get_Tp_allocatorEv
	movq	%rax, %rdx
	movq	-8(%rbp), %rax
	movq	(%rax), %rax
	movq	-16(%rbp), %rcx
	movq	%rcx, %rsi
	movq	%rax, %rdi
	call	_ZSt27__uninitialized_default_n_aIPdmdET_S1_T0_RSaIT1_E
	movq	-8(%rbp), %rdx
	movq	%rax, 8(%rdx)
	nop
	leave
	.cfi_def_cfa 7, 8
	ret
	.cfi_endproc
.LFE4323:
	.size	_ZNSt6vectorIdSaIdEE21_M_default_initializeEm, .-_ZNSt6vectorIdSaIdEE21_M_default_initializeEm
	.section	.text._ZNSt12_Vector_baseIdSaIdEE19_M_get_Tp_allocatorEv,"axG",@progbits,_ZNSt12_Vector_baseIdSaIdEE19_M_get_Tp_allocatorEv,comdat
	.align 2
	.weak	_ZNSt12_Vector_baseIdSaIdEE19_M_get_Tp_allocatorEv
	.type	_ZNSt12_Vector_baseIdSaIdEE19_M_get_Tp_allocatorEv, @function
_ZNSt12_Vector_baseIdSaIdEE19_M_get_Tp_allocatorEv:
.LFB4324:
	.cfi_startproc
	endbr64
	pushq	%rbp
	.cfi_def_cfa_offset 16
	.cfi_offset 6, -16
	movq	%rsp, %rbp
	.cfi_def_cfa_register 6
	movq	%rdi, -8(%rbp)
	movq	-8(%rbp), %rax
	popq	%rbp
	.cfi_def_cfa 7, 8
	ret
	.cfi_endproc
.LFE4324:
	.size	_ZNSt12_Vector_baseIdSaIdEE19_M_get_Tp_allocatorEv, .-_ZNSt12_Vector_baseIdSaIdEE19_M_get_Tp_allocatorEv
	.section	.text._ZSt8_DestroyIPddEvT_S1_RSaIT0_E,"axG",@progbits,_ZSt8_DestroyIPddEvT_S1_RSaIT0_E,comdat
	.weak	_ZSt8_DestroyIPddEvT_S1_RSaIT0_E
	.type	_ZSt8_DestroyIPddEvT_S1_RSaIT0_E, @function
_ZSt8_DestroyIPddEvT_S1_RSaIT0_E:
.LFB4325:
	.cfi_startproc
	endbr64
	pushq	%rbp
	.cfi_def_cfa_offset 16
	.cfi_offset 6, -16
	movq	%rsp, %rbp
	.cfi_def_cfa_register 6
	subq	$32, %rsp
	movq	%rdi, -8(%rbp)
	movq	%rsi, -16(%rbp)
	movq	%rdx, -24(%rbp)
	movq	-16(%rbp), %rdx
	movq	-8(%rbp), %rax
	movq	%rdx, %rsi
	movq	%rax, %rdi
	call	_ZSt8_DestroyIPdEvT_S1_
	nop
	leave
	.cfi_def_cfa 7, 8
	ret
	.cfi_endproc
.LFE4325:
	.size	_ZSt8_DestroyIPddEvT_S1_RSaIT0_E, .-_ZSt8_DestroyIPddEvT_S1_RSaIT0_E
	.section	.text._ZN9__gnu_cxx17__normal_iteratorIPdSt6vectorIdSaIdEEEC2ERKS1_,"axG",@progbits,_ZN9__gnu_cxx17__normal_iteratorIPdSt6vectorIdSaIdEEEC5ERKS1_,comdat
	.align 2
	.weak	_ZN9__gnu_cxx17__normal_iteratorIPdSt6vectorIdSaIdEEEC2ERKS1_
	.type	_ZN9__gnu_cxx17__normal_iteratorIPdSt6vectorIdSaIdEEEC2ERKS1_, @function
_ZN9__gnu_cxx17__normal_iteratorIPdSt6vectorIdSaIdEEEC2ERKS1_:
.LFB4327:
	.cfi_startproc
	endbr64
	pushq	%rbp
	.cfi_def_cfa_offset 16
	.cfi_offset 6, -16
	movq	%rsp, %rbp
	.cfi_def_cfa_register 6
	movq	%rdi, -8(%rbp)
	movq	%rsi, -16(%rbp)
	movq	-16(%rbp), %rax
	movq	(%rax), %rdx
	movq	-8(%rbp), %rax
	movq	%rdx, (%rax)
	nop
	popq	%rbp
	.cfi_def_cfa 7, 8
	ret
	.cfi_endproc
.LFE4327:
	.size	_ZN9__gnu_cxx17__normal_iteratorIPdSt6vectorIdSaIdEEEC2ERKS1_, .-_ZN9__gnu_cxx17__normal_iteratorIPdSt6vectorIdSaIdEEEC2ERKS1_
	.weak	_ZN9__gnu_cxx17__normal_iteratorIPdSt6vectorIdSaIdEEEC1ERKS1_
	.set	_ZN9__gnu_cxx17__normal_iteratorIPdSt6vectorIdSaIdEEEC1ERKS1_,_ZN9__gnu_cxx17__normal_iteratorIPdSt6vectorIdSaIdEEEC2ERKS1_
	.section	.text._ZN9__gnu_cxxneIPdSt6vectorIdSaIdEEEEbRKNS_17__normal_iteratorIT_T0_EESA_,"axG",@progbits,_ZN9__gnu_cxxneIPdSt6vectorIdSaIdEEEEbRKNS_17__normal_iteratorIT_T0_EESA_,comdat
	.weak	_ZN9__gnu_cxxneIPdSt6vectorIdSaIdEEEEbRKNS_17__normal_iteratorIT_T0_EESA_
	.type	_ZN9__gnu_cxxneIPdSt6vectorIdSaIdEEEEbRKNS_17__normal_iteratorIT_T0_EESA_, @function
_ZN9__gnu_cxxneIPdSt6vectorIdSaIdEEEEbRKNS_17__normal_iteratorIT_T0_EESA_:
.LFB4329:
	.cfi_startproc
	endbr64
	pushq	%rbp
	.cfi_def_cfa_offset 16
	.cfi_offset 6, -16
	movq	%rsp, %rbp
	.cfi_def_cfa_register 6
	pushq	%rbx
	subq	$24, %rsp
	.cfi_offset 3, -24
	movq	%rdi, -24(%rbp)
	movq	%rsi, -32(%rbp)
	movq	-24(%rbp), %rax
	movq	%rax, %rdi
	call	_ZNK9__gnu_cxx17__normal_iteratorIPdSt6vectorIdSaIdEEE4baseEv
	movq	(%rax), %rbx
	movq	-32(%rbp), %rax
	movq	%rax, %rdi
	call	_ZNK9__gnu_cxx17__normal_iteratorIPdSt6vectorIdSaIdEEE4baseEv
	movq	(%rax), %rax
	cmpq	%rax, %rbx
	setne	%al
	movq	-8(%rbp), %rbx
	leave
	.cfi_def_cfa 7, 8
	ret
	.cfi_endproc
.LFE4329:
	.size	_ZN9__gnu_cxxneIPdSt6vectorIdSaIdEEEEbRKNS_17__normal_iteratorIT_T0_EESA_, .-_ZN9__gnu_cxxneIPdSt6vectorIdSaIdEEEEbRKNS_17__normal_iteratorIT_T0_EESA_
	.section	.text._ZN9__gnu_cxx17__normal_iteratorIPdSt6vectorIdSaIdEEEppEv,"axG",@progbits,_ZN9__gnu_cxx17__normal_iteratorIPdSt6vectorIdSaIdEEEppEv,comdat
	.align 2
	.weak	_ZN9__gnu_cxx17__normal_iteratorIPdSt6vectorIdSaIdEEEppEv
	.type	_ZN9__gnu_cxx17__normal_iteratorIPdSt6vectorIdSaIdEEEppEv, @function
_ZN9__gnu_cxx17__normal_iteratorIPdSt6vectorIdSaIdEEEppEv:
.LFB4330:
	.cfi_startproc
	endbr64
	pushq	%rbp
	.cfi_def_cfa_offset 16
	.cfi_offset 6, -16
	movq	%rsp, %rbp
	.cfi_def_cfa_register 6
	movq	%rdi, -8(%rbp)
	movq	-8(%rbp), %rax
	movq	(%rax), %rax
	leaq	8(%rax), %rdx
	movq	-8(%rbp), %rax
	movq	%rdx, (%rax)
	movq	-8(%rbp), %rax
	popq	%rbp
	.cfi_def_cfa 7, 8
	ret
	.cfi_endproc
.LFE4330:
	.size	_ZN9__gnu_cxx17__normal_iteratorIPdSt6vectorIdSaIdEEEppEv, .-_ZN9__gnu_cxx17__normal_iteratorIPdSt6vectorIdSaIdEEEppEv
	.section	.text._ZNK9__gnu_cxx17__normal_iteratorIPdSt6vectorIdSaIdEEEdeEv,"axG",@progbits,_ZNK9__gnu_cxx17__normal_iteratorIPdSt6vectorIdSaIdEEEdeEv,comdat
	.align 2
	.weak	_ZNK9__gnu_cxx17__normal_iteratorIPdSt6vectorIdSaIdEEEdeEv
	.type	_ZNK9__gnu_cxx17__normal_iteratorIPdSt6vectorIdSaIdEEEdeEv, @function
_ZNK9__gnu_cxx17__normal_iteratorIPdSt6vectorIdSaIdEEEdeEv:
.LFB4331:
	.cfi_startproc
	endbr64
	pushq	%rbp
	.cfi_def_cfa_offset 16
	.cfi_offset 6, -16
	movq	%rsp, %rbp
	.cfi_def_cfa_register 6
	movq	%rdi, -8(%rbp)
	movq	-8(%rbp), %rax
	movq	(%rax), %rax
	popq	%rbp
	.cfi_def_cfa 7, 8
	ret
	.cfi_endproc
.LFE4331:
	.size	_ZNK9__gnu_cxx17__normal_iteratorIPdSt6vectorIdSaIdEEEdeEv, .-_ZNK9__gnu_cxx17__normal_iteratorIPdSt6vectorIdSaIdEEEdeEv
	.section	.text._ZNK9__gnu_cxx17__normal_iteratorIPKdSt6vectorIdSaIdEEE4baseEv,"axG",@progbits,_ZNK9__gnu_cxx17__normal_iteratorIPKdSt6vectorIdSaIdEEE4baseEv,comdat
	.align 2
	.weak	_ZNK9__gnu_cxx17__normal_iteratorIPKdSt6vectorIdSaIdEEE4baseEv
	.type	_ZNK9__gnu_cxx17__normal_iteratorIPKdSt6vectorIdSaIdEEE4baseEv, @function
_ZNK9__gnu_cxx17__normal_iteratorIPKdSt6vectorIdSaIdEEE4baseEv:
.LFB4398:
	.cfi_startproc
	endbr64
	pushq	%rbp
	.cfi_def_cfa_offset 16
	.cfi_offset 6, -16
	movq	%rsp, %rbp
	.cfi_def_cfa_register 6
	movq	%rdi, -8(%rbp)
	movq	-8(%rbp), %rax
	popq	%rbp
	.cfi_def_cfa 7, 8
	ret
	.cfi_endproc
.LFE4398:
	.size	_ZNK9__gnu_cxx17__normal_iteratorIPKdSt6vectorIdSaIdEEE4baseEv, .-_ZNK9__gnu_cxx17__normal_iteratorIPKdSt6vectorIdSaIdEEE4baseEv
	.section	.text._ZN9__gnu_cxxeqIPKdSt6vectorIdSaIdEEEEbRKNS_17__normal_iteratorIT_T0_EESB_,"axG",@progbits,_ZN9__gnu_cxxeqIPKdSt6vectorIdSaIdEEEEbRKNS_17__normal_iteratorIT_T0_EESB_,comdat
	.weak	_ZN9__gnu_cxxeqIPKdSt6vectorIdSaIdEEEEbRKNS_17__normal_iteratorIT_T0_EESB_
	.type	_ZN9__gnu_cxxeqIPKdSt6vectorIdSaIdEEEEbRKNS_17__normal_iteratorIT_T0_EESB_, @function
_ZN9__gnu_cxxeqIPKdSt6vectorIdSaIdEEEEbRKNS_17__normal_iteratorIT_T0_EESB_:
.LFB4399:
	.cfi_startproc
	endbr64
	pushq	%rbp
	.cfi_def_cfa_offset 16
	.cfi_offset 6, -16
	movq	%rsp, %rbp
	.cfi_def_cfa_register 6
	pushq	%rbx
	subq	$24, %rsp
	.cfi_offset 3, -24
	movq	%rdi, -24(%rbp)
	movq	%rsi, -32(%rbp)
	movq	-24(%rbp), %rax
	movq	%rax, %rdi
	call	_ZNK9__gnu_cxx17__normal_iteratorIPKdSt6vectorIdSaIdEEE4baseEv
	movq	(%rax), %rbx
	movq	-32(%rbp), %rax
	movq	%rax, %rdi
	call	_ZNK9__gnu_cxx17__normal_iteratorIPKdSt6vectorIdSaIdEEE4baseEv
	movq	(%rax), %rax
	cmpq	%rax, %rbx
	sete	%al
	movq	-8(%rbp), %rbx
	leave
	.cfi_def_cfa 7, 8
	ret
	.cfi_endproc
.LFE4399:
	.size	_ZN9__gnu_cxxeqIPKdSt6vectorIdSaIdEEEEbRKNS_17__normal_iteratorIT_T0_EESB_, .-_ZN9__gnu_cxxeqIPKdSt6vectorIdSaIdEEEEbRKNS_17__normal_iteratorIT_T0_EESB_
	.section	.text._ZNSt6vectorIdSaIdEE11_S_max_sizeERKS0_,"axG",@progbits,_ZNSt6vectorIdSaIdEE11_S_max_sizeERKS0_,comdat
	.weak	_ZNSt6vectorIdSaIdEE11_S_max_sizeERKS0_
	.type	_ZNSt6vectorIdSaIdEE11_S_max_sizeERKS0_, @function
_ZNSt6vectorIdSaIdEE11_S_max_sizeERKS0_:
.LFB4400:
	.cfi_startproc
	endbr64
	pushq	%rbp
	.cfi_def_cfa_offset 16
	.cfi_offset 6, -16
	movq	%rsp, %rbp
	.cfi_def_cfa_register 6
	subq	$48, %rsp
	movq	%rdi, -40(%rbp)
	movq	%fs:40, %rax
	movq	%rax, -8(%rbp)
	xorl	%eax, %eax
	movabsq	$1152921504606846975, %rax
	movq	%rax, -24(%rbp)
	movq	-40(%rbp), %rax
	movq	%rax, %rdi
	call	_ZNSt16allocator_traitsISaIdEE8max_sizeERKS0_
	movq	%rax, -16(%rbp)
	leaq	-16(%rbp), %rdx
	leaq	-24(%rbp), %rax
	movq	%rdx, %rsi
	movq	%rax, %rdi
	call	_ZSt3minImERKT_S2_S2_
	movq	(%rax), %rax
	movq	-8(%rbp), %rdx
	subq	%fs:40, %rdx
	je	.L111
	call	__stack_chk_fail@PLT
.L111:
	leave
	.cfi_def_cfa 7, 8
	ret
	.cfi_endproc
.LFE4400:
	.size	_ZNSt6vectorIdSaIdEE11_S_max_sizeERKS0_, .-_ZNSt6vectorIdSaIdEE11_S_max_sizeERKS0_
	.section	.text._ZNSaIdEC2ERKS_,"axG",@progbits,_ZNSaIdEC5ERKS_,comdat
	.align 2
	.weak	_ZNSaIdEC2ERKS_
	.type	_ZNSaIdEC2ERKS_, @function
_ZNSaIdEC2ERKS_:
.LFB4402:
	.cfi_startproc
	endbr64
	pushq	%rbp
	.cfi_def_cfa_offset 16
	.cfi_offset 6, -16
	movq	%rsp, %rbp
	.cfi_def_cfa_register 6
	subq	$16, %rsp
	movq	%rdi, -8(%rbp)
	movq	%rsi, -16(%rbp)
	movq	-16(%rbp), %rdx
	movq	-8(%rbp), %rax
	movq	%rdx, %rsi
	movq	%rax, %rdi
	call	_ZN9__gnu_cxx13new_allocatorIdEC2ERKS1_
	nop
	leave
	.cfi_def_cfa 7, 8
	ret
	.cfi_endproc
.LFE4402:
	.size	_ZNSaIdEC2ERKS_, .-_ZNSaIdEC2ERKS_
	.weak	_ZNSaIdEC1ERKS_
	.set	_ZNSaIdEC1ERKS_,_ZNSaIdEC2ERKS_
	.section	.text._ZNSt12_Vector_baseIdSaIdEE12_Vector_implC2ERKS0_,"axG",@progbits,_ZNSt12_Vector_baseIdSaIdEE12_Vector_implC5ERKS0_,comdat
	.align 2
	.weak	_ZNSt12_Vector_baseIdSaIdEE12_Vector_implC2ERKS0_
	.type	_ZNSt12_Vector_baseIdSaIdEE12_Vector_implC2ERKS0_, @function
_ZNSt12_Vector_baseIdSaIdEE12_Vector_implC2ERKS0_:
.LFB4405:
	.cfi_startproc
	endbr64
	pushq	%rbp
	.cfi_def_cfa_offset 16
	.cfi_offset 6, -16
	movq	%rsp, %rbp
	.cfi_def_cfa_register 6
	subq	$16, %rsp
	movq	%rdi, -8(%rbp)
	movq	%rsi, -16(%rbp)
	movq	-16(%rbp), %rdx
	movq	-8(%rbp), %rax
	movq	%rdx, %rsi
	movq	%rax, %rdi
	call	_ZNSaIdEC2ERKS_
	movq	-8(%rbp), %rax
	movq	%rax, %rdi
	call	_ZNSt12_Vector_baseIdSaIdEE17_Vector_impl_dataC2Ev
	nop
	leave
	.cfi_def_cfa 7, 8
	ret
	.cfi_endproc
.LFE4405:
	.size	_ZNSt12_Vector_baseIdSaIdEE12_Vector_implC2ERKS0_, .-_ZNSt12_Vector_baseIdSaIdEE12_Vector_implC2ERKS0_
	.weak	_ZNSt12_Vector_baseIdSaIdEE12_Vector_implC1ERKS0_
	.set	_ZNSt12_Vector_baseIdSaIdEE12_Vector_implC1ERKS0_,_ZNSt12_Vector_baseIdSaIdEE12_Vector_implC2ERKS0_
	.section	.text._ZNSt12_Vector_baseIdSaIdEE17_M_create_storageEm,"axG",@progbits,_ZNSt12_Vector_baseIdSaIdEE17_M_create_storageEm,comdat
	.align 2
	.weak	_ZNSt12_Vector_baseIdSaIdEE17_M_create_storageEm
	.type	_ZNSt12_Vector_baseIdSaIdEE17_M_create_storageEm, @function
_ZNSt12_Vector_baseIdSaIdEE17_M_create_storageEm:
.LFB4407:
	.cfi_startproc
	endbr64
	pushq	%rbp
	.cfi_def_cfa_offset 16
	.cfi_offset 6, -16
	movq	%rsp, %rbp
	.cfi_def_cfa_register 6
	subq	$16, %rsp
	movq	%rdi, -8(%rbp)
	movq	%rsi, -16(%rbp)
	movq	-16(%rbp), %rdx
	movq	-8(%rbp), %rax
	movq	%rdx, %rsi
	movq	%rax, %rdi
	call	_ZNSt12_Vector_baseIdSaIdEE11_M_allocateEm
	movq	-8(%rbp), %rdx
	movq	%rax, (%rdx)
	movq	-8(%rbp), %rax
	movq	(%rax), %rdx
	movq	-8(%rbp), %rax
	movq	%rdx, 8(%rax)
	movq	-8(%rbp), %rax
	movq	(%rax), %rdx
	movq	-16(%rbp), %rax
	salq	$3, %rax
	addq	%rax, %rdx
	movq	-8(%rbp), %rax
	movq	%rdx, 16(%rax)
	nop
	leave
	.cfi_def_cfa 7, 8
	ret
	.cfi_endproc
.LFE4407:
	.size	_ZNSt12_Vector_baseIdSaIdEE17_M_create_storageEm, .-_ZNSt12_Vector_baseIdSaIdEE17_M_create_storageEm
	.section	.text._ZNSt12_Vector_baseIdSaIdEE13_M_deallocateEPdm,"axG",@progbits,_ZNSt12_Vector_baseIdSaIdEE13_M_deallocateEPdm,comdat
	.align 2
	.weak	_ZNSt12_Vector_baseIdSaIdEE13_M_deallocateEPdm
	.type	_ZNSt12_Vector_baseIdSaIdEE13_M_deallocateEPdm, @function
_ZNSt12_Vector_baseIdSaIdEE13_M_deallocateEPdm:
.LFB4408:
	.cfi_startproc
	endbr64
	pushq	%rbp
	.cfi_def_cfa_offset 16
	.cfi_offset 6, -16
	movq	%rsp, %rbp
	.cfi_def_cfa_register 6
	subq	$32, %rsp
	movq	%rdi, -8(%rbp)
	movq	%rsi, -16(%rbp)
	movq	%rdx, -24(%rbp)
	cmpq	$0, -16(%rbp)
	je	.L117
	movq	-8(%rbp), %rax
	movq	-24(%rbp), %rdx
	movq	-16(%rbp), %rcx
	movq	%rcx, %rsi
	movq	%rax, %rdi
	call	_ZNSt16allocator_traitsISaIdEE10deallocateERS0_Pdm
.L117:
	nop
	leave
	.cfi_def_cfa 7, 8
	ret
	.cfi_endproc
.LFE4408:
	.size	_ZNSt12_Vector_baseIdSaIdEE13_M_deallocateEPdm, .-_ZNSt12_Vector_baseIdSaIdEE13_M_deallocateEPdm
	.section	.text._ZSt27__uninitialized_default_n_aIPdmdET_S1_T0_RSaIT1_E,"axG",@progbits,_ZSt27__uninitialized_default_n_aIPdmdET_S1_T0_RSaIT1_E,comdat
	.weak	_ZSt27__uninitialized_default_n_aIPdmdET_S1_T0_RSaIT1_E
	.type	_ZSt27__uninitialized_default_n_aIPdmdET_S1_T0_RSaIT1_E, @function
_ZSt27__uninitialized_default_n_aIPdmdET_S1_T0_RSaIT1_E:
.LFB4409:
	.cfi_startproc
	endbr64
	pushq	%rbp
	.cfi_def_cfa_offset 16
	.cfi_offset 6, -16
	movq	%rsp, %rbp
	.cfi_def_cfa_register 6
	subq	$32, %rsp
	movq	%rdi, -8(%rbp)
	movq	%rsi, -16(%rbp)
	movq	%rdx, -24(%rbp)
	movq	-16(%rbp), %rdx
	movq	-8(%rbp), %rax
	movq	%rdx, %rsi
	movq	%rax, %rdi
	call	_ZSt25__uninitialized_default_nIPdmET_S1_T0_
	leave
	.cfi_def_cfa 7, 8
	ret
	.cfi_endproc
.LFE4409:
	.size	_ZSt27__uninitialized_default_n_aIPdmdET_S1_T0_RSaIT1_E, .-_ZSt27__uninitialized_default_n_aIPdmdET_S1_T0_RSaIT1_E
	.section	.text._ZSt8_DestroyIPdEvT_S1_,"axG",@progbits,_ZSt8_DestroyIPdEvT_S1_,comdat
	.weak	_ZSt8_DestroyIPdEvT_S1_
	.type	_ZSt8_DestroyIPdEvT_S1_, @function
_ZSt8_DestroyIPdEvT_S1_:
.LFB4410:
	.cfi_startproc
	endbr64
	pushq	%rbp
	.cfi_def_cfa_offset 16
	.cfi_offset 6, -16
	movq	%rsp, %rbp
	.cfi_def_cfa_register 6
	subq	$16, %rsp
	movq	%rdi, -8(%rbp)
	movq	%rsi, -16(%rbp)
	movq	-16(%rbp), %rdx
	movq	-8(%rbp), %rax
	movq	%rdx, %rsi
	movq	%rax, %rdi
	call	_ZNSt12_Destroy_auxILb1EE9__destroyIPdEEvT_S3_
	nop
	leave
	.cfi_def_cfa 7, 8
	ret
	.cfi_endproc
.LFE4410:
	.size	_ZSt8_DestroyIPdEvT_S1_, .-_ZSt8_DestroyIPdEvT_S1_
	.section	.text._ZNK9__gnu_cxx17__normal_iteratorIPdSt6vectorIdSaIdEEE4baseEv,"axG",@progbits,_ZNK9__gnu_cxx17__normal_iteratorIPdSt6vectorIdSaIdEEE4baseEv,comdat
	.align 2
	.weak	_ZNK9__gnu_cxx17__normal_iteratorIPdSt6vectorIdSaIdEEE4baseEv
	.type	_ZNK9__gnu_cxx17__normal_iteratorIPdSt6vectorIdSaIdEEE4baseEv, @function
_ZNK9__gnu_cxx17__normal_iteratorIPdSt6vectorIdSaIdEEE4baseEv:
.LFB4412:
	.cfi_startproc
	endbr64
	pushq	%rbp
	.cfi_def_cfa_offset 16
	.cfi_offset 6, -16
	movq	%rsp, %rbp
	.cfi_def_cfa_register 6
	movq	%rdi, -8(%rbp)
	movq	-8(%rbp), %rax
	popq	%rbp
	.cfi_def_cfa 7, 8
	ret
	.cfi_endproc
.LFE4412:
	.size	_ZNK9__gnu_cxx17__normal_iteratorIPdSt6vectorIdSaIdEEE4baseEv, .-_ZNK9__gnu_cxx17__normal_iteratorIPdSt6vectorIdSaIdEEE4baseEv
	.section	.text._ZNSt16allocator_traitsISaIdEE8max_sizeERKS0_,"axG",@progbits,_ZNSt16allocator_traitsISaIdEE8max_sizeERKS0_,comdat
	.weak	_ZNSt16allocator_traitsISaIdEE8max_sizeERKS0_
	.type	_ZNSt16allocator_traitsISaIdEE8max_sizeERKS0_, @function
_ZNSt16allocator_traitsISaIdEE8max_sizeERKS0_:
.LFB4470:
	.cfi_startproc
	endbr64
	pushq	%rbp
	.cfi_def_cfa_offset 16
	.cfi_offset 6, -16
	movq	%rsp, %rbp
	.cfi_def_cfa_register 6
	subq	$16, %rsp
	movq	%rdi, -8(%rbp)
	movq	-8(%rbp), %rax
	movq	%rax, %rdi
	call	_ZNK9__gnu_cxx13new_allocatorIdE8max_sizeEv
	leave
	.cfi_def_cfa 7, 8
	ret
	.cfi_endproc
.LFE4470:
	.size	_ZNSt16allocator_traitsISaIdEE8max_sizeERKS0_, .-_ZNSt16allocator_traitsISaIdEE8max_sizeERKS0_
	.section	.text._ZN9__gnu_cxx13new_allocatorIdEC2ERKS1_,"axG",@progbits,_ZN9__gnu_cxx13new_allocatorIdEC5ERKS1_,comdat
	.align 2
	.weak	_ZN9__gnu_cxx13new_allocatorIdEC2ERKS1_
	.type	_ZN9__gnu_cxx13new_allocatorIdEC2ERKS1_, @function
_ZN9__gnu_cxx13new_allocatorIdEC2ERKS1_:
.LFB4472:
	.cfi_startproc
	endbr64
	pushq	%rbp
	.cfi_def_cfa_offset 16
	.cfi_offset 6, -16
	movq	%rsp, %rbp
	.cfi_def_cfa_register 6
	movq	%rdi, -8(%rbp)
	movq	%rsi, -16(%rbp)
	nop
	popq	%rbp
	.cfi_def_cfa 7, 8
	ret
	.cfi_endproc
.LFE4472:
	.size	_ZN9__gnu_cxx13new_allocatorIdEC2ERKS1_, .-_ZN9__gnu_cxx13new_allocatorIdEC2ERKS1_
	.weak	_ZN9__gnu_cxx13new_allocatorIdEC1ERKS1_
	.set	_ZN9__gnu_cxx13new_allocatorIdEC1ERKS1_,_ZN9__gnu_cxx13new_allocatorIdEC2ERKS1_
	.section	.text._ZNSt12_Vector_baseIdSaIdEE17_Vector_impl_dataC2Ev,"axG",@progbits,_ZNSt12_Vector_baseIdSaIdEE17_Vector_impl_dataC5Ev,comdat
	.align 2
	.weak	_ZNSt12_Vector_baseIdSaIdEE17_Vector_impl_dataC2Ev
	.type	_ZNSt12_Vector_baseIdSaIdEE17_Vector_impl_dataC2Ev, @function
_ZNSt12_Vector_baseIdSaIdEE17_Vector_impl_dataC2Ev:
.LFB4475:
	.cfi_startproc
	endbr64
	pushq	%rbp
	.cfi_def_cfa_offset 16
	.cfi_offset 6, -16
	movq	%rsp, %rbp
	.cfi_def_cfa_register 6
	movq	%rdi, -8(%rbp)
	movq	-8(%rbp), %rax
	movq	$0, (%rax)
	movq	-8(%rbp), %rax
	movq	$0, 8(%rax)
	movq	-8(%rbp), %rax
	movq	$0, 16(%rax)
	nop
	popq	%rbp
	.cfi_def_cfa 7, 8
	ret
	.cfi_endproc
.LFE4475:
	.size	_ZNSt12_Vector_baseIdSaIdEE17_Vector_impl_dataC2Ev, .-_ZNSt12_Vector_baseIdSaIdEE17_Vector_impl_dataC2Ev
	.weak	_ZNSt12_Vector_baseIdSaIdEE17_Vector_impl_dataC1Ev
	.set	_ZNSt12_Vector_baseIdSaIdEE17_Vector_impl_dataC1Ev,_ZNSt12_Vector_baseIdSaIdEE17_Vector_impl_dataC2Ev
	.section	.text._ZNSt12_Vector_baseIdSaIdEE11_M_allocateEm,"axG",@progbits,_ZNSt12_Vector_baseIdSaIdEE11_M_allocateEm,comdat
	.align 2
	.weak	_ZNSt12_Vector_baseIdSaIdEE11_M_allocateEm
	.type	_ZNSt12_Vector_baseIdSaIdEE11_M_allocateEm, @function
_ZNSt12_Vector_baseIdSaIdEE11_M_allocateEm:
.LFB4477:
	.cfi_startproc
	endbr64
	pushq	%rbp
	.cfi_def_cfa_offset 16
	.cfi_offset 6, -16
	movq	%rsp, %rbp
	.cfi_def_cfa_register 6
	subq	$16, %rsp
	movq	%rdi, -8(%rbp)
	movq	%rsi, -16(%rbp)
	cmpq	$0, -16(%rbp)
	je	.L128
	movq	-8(%rbp), %rax
	movq	-16(%rbp), %rdx
	movq	%rdx, %rsi
	movq	%rax, %rdi
	call	_ZNSt16allocator_traitsISaIdEE8allocateERS0_m
	jmp	.L130
.L128:
	movl	$0, %eax
.L130:
	leave
	.cfi_def_cfa 7, 8
	ret
	.cfi_endproc
.LFE4477:
	.size	_ZNSt12_Vector_baseIdSaIdEE11_M_allocateEm, .-_ZNSt12_Vector_baseIdSaIdEE11_M_allocateEm
	.section	.text._ZNSt16allocator_traitsISaIdEE10deallocateERS0_Pdm,"axG",@progbits,_ZNSt16allocator_traitsISaIdEE10deallocateERS0_Pdm,comdat
	.weak	_ZNSt16allocator_traitsISaIdEE10deallocateERS0_Pdm
	.type	_ZNSt16allocator_traitsISaIdEE10deallocateERS0_Pdm, @function
_ZNSt16allocator_traitsISaIdEE10deallocateERS0_Pdm:
.LFB4478:
	.cfi_startproc
	endbr64
	pushq	%rbp
	.cfi_def_cfa_offset 16
	.cfi_offset 6, -16
	movq	%rsp, %rbp
	.cfi_def_cfa_register 6
	subq	$32, %rsp
	movq	%rdi, -8(%rbp)
	movq	%rsi, -16(%rbp)
	movq	%rdx, -24(%rbp)
	movq	-24(%rbp), %rdx
	movq	-16(%rbp), %rcx
	movq	-8(%rbp), %rax
	movq	%rcx, %rsi
	movq	%rax, %rdi
	call	_ZN9__gnu_cxx13new_allocatorIdE10deallocateEPdm
	nop
	leave
	.cfi_def_cfa 7, 8
	ret
	.cfi_endproc
.LFE4478:
	.size	_ZNSt16allocator_traitsISaIdEE10deallocateERS0_Pdm, .-_ZNSt16allocator_traitsISaIdEE10deallocateERS0_Pdm
	.section	.text._ZSt25__uninitialized_default_nIPdmET_S1_T0_,"axG",@progbits,_ZSt25__uninitialized_default_nIPdmET_S1_T0_,comdat
	.weak	_ZSt25__uninitialized_default_nIPdmET_S1_T0_
	.type	_ZSt25__uninitialized_default_nIPdmET_S1_T0_, @function
_ZSt25__uninitialized_default_nIPdmET_S1_T0_:
.LFB4479:
	.cfi_startproc
	endbr64
	pushq	%rbp
	.cfi_def_cfa_offset 16
	.cfi_offset 6, -16
	movq	%rsp, %rbp
	.cfi_def_cfa_register 6
	subq	$32, %rsp
	movq	%rdi, -24(%rbp)
	movq	%rsi, -32(%rbp)
	movb	$1, -1(%rbp)
	movq	-32(%rbp), %rdx
	movq	-24(%rbp), %rax
	movq	%rdx, %rsi
	movq	%rax, %rdi
	call	_ZNSt27__uninitialized_default_n_1ILb1EE18__uninit_default_nIPdmEET_S3_T0_
	leave
	.cfi_def_cfa 7, 8
	ret
	.cfi_endproc
.LFE4479:
	.size	_ZSt25__uninitialized_default_nIPdmET_S1_T0_, .-_ZSt25__uninitialized_default_nIPdmET_S1_T0_
	.section	.text._ZNSt12_Destroy_auxILb1EE9__destroyIPdEEvT_S3_,"axG",@progbits,_ZNSt12_Destroy_auxILb1EE9__destroyIPdEEvT_S3_,comdat
	.weak	_ZNSt12_Destroy_auxILb1EE9__destroyIPdEEvT_S3_
	.type	_ZNSt12_Destroy_auxILb1EE9__destroyIPdEEvT_S3_, @function
_ZNSt12_Destroy_auxILb1EE9__destroyIPdEEvT_S3_:
.LFB4480:
	.cfi_startproc
	endbr64
	pushq	%rbp
	.cfi_def_cfa_offset 16
	.cfi_offset 6, -16
	movq	%rsp, %rbp
	.cfi_def_cfa_register 6
	movq	%rdi, -8(%rbp)
	movq	%rsi, -16(%rbp)
	nop
	popq	%rbp
	.cfi_def_cfa 7, 8
	ret
	.cfi_endproc
.LFE4480:
	.size	_ZNSt12_Destroy_auxILb1EE9__destroyIPdEEvT_S3_, .-_ZNSt12_Destroy_auxILb1EE9__destroyIPdEEvT_S3_
	.section	.text._ZNK9__gnu_cxx13new_allocatorIdE8max_sizeEv,"axG",@progbits,_ZNK9__gnu_cxx13new_allocatorIdE8max_sizeEv,comdat
	.align 2
	.weak	_ZNK9__gnu_cxx13new_allocatorIdE8max_sizeEv
	.type	_ZNK9__gnu_cxx13new_allocatorIdE8max_sizeEv, @function
_ZNK9__gnu_cxx13new_allocatorIdE8max_sizeEv:
.LFB4529:
	.cfi_startproc
	endbr64
	pushq	%rbp
	.cfi_def_cfa_offset 16
	.cfi_offset 6, -16
	movq	%rsp, %rbp
	.cfi_def_cfa_register 6
	subq	$16, %rsp
	movq	%rdi, -8(%rbp)
	movq	-8(%rbp), %rax
	movq	%rax, %rdi
	call	_ZNK9__gnu_cxx13new_allocatorIdE11_M_max_sizeEv
	leave
	.cfi_def_cfa 7, 8
	ret
	.cfi_endproc
.LFE4529:
	.size	_ZNK9__gnu_cxx13new_allocatorIdE8max_sizeEv, .-_ZNK9__gnu_cxx13new_allocatorIdE8max_sizeEv
	.section	.text._ZNSt16allocator_traitsISaIdEE8allocateERS0_m,"axG",@progbits,_ZNSt16allocator_traitsISaIdEE8allocateERS0_m,comdat
	.weak	_ZNSt16allocator_traitsISaIdEE8allocateERS0_m
	.type	_ZNSt16allocator_traitsISaIdEE8allocateERS0_m, @function
_ZNSt16allocator_traitsISaIdEE8allocateERS0_m:
.LFB4530:
	.cfi_startproc
	endbr64
	pushq	%rbp
	.cfi_def_cfa_offset 16
	.cfi_offset 6, -16
	movq	%rsp, %rbp
	.cfi_def_cfa_register 6
	subq	$16, %rsp
	movq	%rdi, -8(%rbp)
	movq	%rsi, -16(%rbp)
	movq	-16(%rbp), %rcx
	movq	-8(%rbp), %rax
	movl	$0, %edx
	movq	%rcx, %rsi
	movq	%rax, %rdi
	call	_ZN9__gnu_cxx13new_allocatorIdE8allocateEmPKv
	leave
	.cfi_def_cfa 7, 8
	ret
	.cfi_endproc
.LFE4530:
	.size	_ZNSt16allocator_traitsISaIdEE8allocateERS0_m, .-_ZNSt16allocator_traitsISaIdEE8allocateERS0_m
	.section	.text._ZN9__gnu_cxx13new_allocatorIdE10deallocateEPdm,"axG",@progbits,_ZN9__gnu_cxx13new_allocatorIdE10deallocateEPdm,comdat
	.align 2
	.weak	_ZN9__gnu_cxx13new_allocatorIdE10deallocateEPdm
	.type	_ZN9__gnu_cxx13new_allocatorIdE10deallocateEPdm, @function
_ZN9__gnu_cxx13new_allocatorIdE10deallocateEPdm:
.LFB4531:
	.cfi_startproc
	endbr64
	pushq	%rbp
	.cfi_def_cfa_offset 16
	.cfi_offset 6, -16
	movq	%rsp, %rbp
	.cfi_def_cfa_register 6
	subq	$32, %rsp
	movq	%rdi, -8(%rbp)
	movq	%rsi, -16(%rbp)
	movq	%rdx, -24(%rbp)
	movq	-24(%rbp), %rax
	leaq	0(,%rax,8), %rdx
	movq	-16(%rbp), %rax
	movq	%rdx, %rsi
	movq	%rax, %rdi
	call	_ZdlPvm@PLT
	leave
	.cfi_def_cfa 7, 8
	ret
	.cfi_endproc
.LFE4531:
	.size	_ZN9__gnu_cxx13new_allocatorIdE10deallocateEPdm, .-_ZN9__gnu_cxx13new_allocatorIdE10deallocateEPdm
	.section	.text._ZSt11__addressofIdEPT_RS0_,"axG",@progbits,_ZSt11__addressofIdEPT_RS0_,comdat
	.weak	_ZSt11__addressofIdEPT_RS0_
	.type	_ZSt11__addressofIdEPT_RS0_, @function
_ZSt11__addressofIdEPT_RS0_:
.LFB4533:
	.cfi_startproc
	endbr64
	pushq	%rbp
	.cfi_def_cfa_offset 16
	.cfi_offset 6, -16
	movq	%rsp, %rbp
	.cfi_def_cfa_register 6
	movq	%rdi, -8(%rbp)
	movq	-8(%rbp), %rax
	popq	%rbp
	.cfi_def_cfa 7, 8
	ret
	.cfi_endproc
.LFE4533:
	.size	_ZSt11__addressofIdEPT_RS0_, .-_ZSt11__addressofIdEPT_RS0_
	.section	.text._ZNSt27__uninitialized_default_n_1ILb1EE18__uninit_default_nIPdmEET_S3_T0_,"axG",@progbits,_ZNSt27__uninitialized_default_n_1ILb1EE18__uninit_default_nIPdmEET_S3_T0_,comdat
	.weak	_ZNSt27__uninitialized_default_n_1ILb1EE18__uninit_default_nIPdmEET_S3_T0_
	.type	_ZNSt27__uninitialized_default_n_1ILb1EE18__uninit_default_nIPdmEET_S3_T0_, @function
_ZNSt27__uninitialized_default_n_1ILb1EE18__uninit_default_nIPdmEET_S3_T0_:
.LFB4532:
	.cfi_startproc
	endbr64
	pushq	%rbp
	.cfi_def_cfa_offset 16
	.cfi_offset 6, -16
	movq	%rsp, %rbp
	.cfi_def_cfa_register 6
	subq	$32, %rsp
	movq	%rdi, -24(%rbp)
	movq	%rsi, -32(%rbp)
	cmpq	$0, -32(%rbp)
	je	.L144
	movq	-24(%rbp), %rax
	movq	%rax, %rdi
	call	_ZSt11__addressofIdEPT_RS0_
	movq	%rax, -8(%rbp)
	movq	-8(%rbp), %rax
	movq	%rax, %rdi
	call	_ZSt10_ConstructIdJEEvPT_DpOT0_
	addq	$8, -24(%rbp)
	movq	-32(%rbp), %rax
	leaq	-1(%rax), %rcx
	movq	-8(%rbp), %rdx
	movq	-24(%rbp), %rax
	movq	%rcx, %rsi
	movq	%rax, %rdi
	call	_ZSt6fill_nIPdmdET_S1_T0_RKT1_
	movq	%rax, -24(%rbp)
.L144:
	movq	-24(%rbp), %rax
	leave
	.cfi_def_cfa 7, 8
	ret
	.cfi_endproc
.LFE4532:
	.size	_ZNSt27__uninitialized_default_n_1ILb1EE18__uninit_default_nIPdmEET_S3_T0_, .-_ZNSt27__uninitialized_default_n_1ILb1EE18__uninit_default_nIPdmEET_S3_T0_
	.section	.text._ZNK9__gnu_cxx13new_allocatorIdE11_M_max_sizeEv,"axG",@progbits,_ZNK9__gnu_cxx13new_allocatorIdE11_M_max_sizeEv,comdat
	.align 2
	.weak	_ZNK9__gnu_cxx13new_allocatorIdE11_M_max_sizeEv
	.type	_ZNK9__gnu_cxx13new_allocatorIdE11_M_max_sizeEv, @function
_ZNK9__gnu_cxx13new_allocatorIdE11_M_max_sizeEv:
.LFB4560:
	.cfi_startproc
	endbr64
	pushq	%rbp
	.cfi_def_cfa_offset 16
	.cfi_offset 6, -16
	movq	%rsp, %rbp
	.cfi_def_cfa_register 6
	movq	%rdi, -8(%rbp)
	movabsq	$1152921504606846975, %rax
	popq	%rbp
	.cfi_def_cfa 7, 8
	ret
	.cfi_endproc
.LFE4560:
	.size	_ZNK9__gnu_cxx13new_allocatorIdE11_M_max_sizeEv, .-_ZNK9__gnu_cxx13new_allocatorIdE11_M_max_sizeEv
	.section	.text._ZN9__gnu_cxx13new_allocatorIdE8allocateEmPKv,"axG",@progbits,_ZN9__gnu_cxx13new_allocatorIdE8allocateEmPKv,comdat
	.align 2
	.weak	_ZN9__gnu_cxx13new_allocatorIdE8allocateEmPKv
	.type	_ZN9__gnu_cxx13new_allocatorIdE8allocateEmPKv, @function
_ZN9__gnu_cxx13new_allocatorIdE8allocateEmPKv:
.LFB4561:
	.cfi_startproc
	endbr64
	pushq	%rbp
	.cfi_def_cfa_offset 16
	.cfi_offset 6, -16
	movq	%rsp, %rbp
	.cfi_def_cfa_register 6
	subq	$32, %rsp
	movq	%rdi, -8(%rbp)
	movq	%rsi, -16(%rbp)
	movq	%rdx, -24(%rbp)
	movq	-8(%rbp), %rax
	movq	%rax, %rdi
	call	_ZNK9__gnu_cxx13new_allocatorIdE11_M_max_sizeEv
	cmpq	%rax, -16(%rbp)
	seta	%al
	movzbl	%al, %eax
	testq	%rax, %rax
	setne	%al
	testb	%al, %al
	je	.L149
	movabsq	$2305843009213693951, %rax
	cmpq	%rax, -16(%rbp)
	jbe	.L150
	call	_ZSt28__throw_bad_array_new_lengthv@PLT
.L150:
	call	_ZSt17__throw_bad_allocv@PLT
.L149:
	movq	-16(%rbp), %rax
	salq	$3, %rax
	movq	%rax, %rdi
	call	_Znwm@PLT
	nop
	leave
	.cfi_def_cfa 7, 8
	ret
	.cfi_endproc
.LFE4561:
	.size	_ZN9__gnu_cxx13new_allocatorIdE8allocateEmPKv, .-_ZN9__gnu_cxx13new_allocatorIdE8allocateEmPKv
	.section	.text._ZSt10_ConstructIdJEEvPT_DpOT0_,"axG",@progbits,_ZSt10_ConstructIdJEEvPT_DpOT0_,comdat
	.weak	_ZSt10_ConstructIdJEEvPT_DpOT0_
	.type	_ZSt10_ConstructIdJEEvPT_DpOT0_, @function
_ZSt10_ConstructIdJEEvPT_DpOT0_:
.LFB4562:
	.cfi_startproc
	endbr64
	pushq	%rbp
	.cfi_def_cfa_offset 16
	.cfi_offset 6, -16
	movq	%rsp, %rbp
	.cfi_def_cfa_register 6
	subq	$16, %rsp
	movq	%rdi, -8(%rbp)
	movq	-8(%rbp), %rax
	movq	%rax, %rsi
	movl	$8, %edi
	call	_ZnwmPv
	pxor	%xmm0, %xmm0
	movsd	%xmm0, (%rax)
	nop
	leave
	.cfi_def_cfa 7, 8
	ret
	.cfi_endproc
.LFE4562:
	.size	_ZSt10_ConstructIdJEEvPT_DpOT0_, .-_ZSt10_ConstructIdJEEvPT_DpOT0_
	.section	.text._ZSt6fill_nIPdmdET_S1_T0_RKT1_,"axG",@progbits,_ZSt6fill_nIPdmdET_S1_T0_RKT1_,comdat
	.weak	_ZSt6fill_nIPdmdET_S1_T0_RKT1_
	.type	_ZSt6fill_nIPdmdET_S1_T0_RKT1_, @function
_ZSt6fill_nIPdmdET_S1_T0_RKT1_:
.LFB4563:
	.cfi_startproc
	endbr64
	pushq	%rbp
	.cfi_def_cfa_offset 16
	.cfi_offset 6, -16
	movq	%rsp, %rbp
	.cfi_def_cfa_register 6
	subq	$32, %rsp
	movq	%rdi, -8(%rbp)
	movq	%rsi, -16(%rbp)
	movq	%rdx, -24(%rbp)
	leaq	-8(%rbp), %rax
	movq	%rax, %rdi
	call	_ZSt19__iterator_categoryIPdENSt15iterator_traitsIT_E17iterator_categoryERKS2_
	movq	-16(%rbp), %rax
	movq	%rax, %rdi
	call	_ZSt17__size_to_integerm
	movq	%rax, %rcx
	movq	-8(%rbp), %rax
	movq	-24(%rbp), %rdx
	movq	%rcx, %rsi
	movq	%rax, %rdi
	call	_ZSt10__fill_n_aIPdmdET_S1_T0_RKT1_St26random_access_iterator_tag
	leave
	.cfi_def_cfa 7, 8
	ret
	.cfi_endproc
.LFE4563:
	.size	_ZSt6fill_nIPdmdET_S1_T0_RKT1_, .-_ZSt6fill_nIPdmdET_S1_T0_RKT1_
	.section	.text._ZSt19__iterator_categoryIPdENSt15iterator_traitsIT_E17iterator_categoryERKS2_,"axG",@progbits,_ZSt19__iterator_categoryIPdENSt15iterator_traitsIT_E17iterator_categoryERKS2_,comdat
	.weak	_ZSt19__iterator_categoryIPdENSt15iterator_traitsIT_E17iterator_categoryERKS2_
	.type	_ZSt19__iterator_categoryIPdENSt15iterator_traitsIT_E17iterator_categoryERKS2_, @function
_ZSt19__iterator_categoryIPdENSt15iterator_traitsIT_E17iterator_categoryERKS2_:
.LFB4576:
	.cfi_startproc
	endbr64
	pushq	%rbp
	.cfi_def_cfa_offset 16
	.cfi_offset 6, -16
	movq	%rsp, %rbp
	.cfi_def_cfa_register 6
	movq	%rdi, -8(%rbp)
	popq	%rbp
	.cfi_def_cfa 7, 8
	ret
	.cfi_endproc
.LFE4576:
	.size	_ZSt19__iterator_categoryIPdENSt15iterator_traitsIT_E17iterator_categoryERKS2_, .-_ZSt19__iterator_categoryIPdENSt15iterator_traitsIT_E17iterator_categoryERKS2_
	.section	.text._ZSt10__fill_n_aIPdmdET_S1_T0_RKT1_St26random_access_iterator_tag,"axG",@progbits,_ZSt10__fill_n_aIPdmdET_S1_T0_RKT1_St26random_access_iterator_tag,comdat
	.weak	_ZSt10__fill_n_aIPdmdET_S1_T0_RKT1_St26random_access_iterator_tag
	.type	_ZSt10__fill_n_aIPdmdET_S1_T0_RKT1_St26random_access_iterator_tag, @function
_ZSt10__fill_n_aIPdmdET_S1_T0_RKT1_St26random_access_iterator_tag:
.LFB4577:
	.cfi_startproc
	endbr64
	pushq	%rbp
	.cfi_def_cfa_offset 16
	.cfi_offset 6, -16
	movq	%rsp, %rbp
	.cfi_def_cfa_register 6
	subq	$32, %rsp
	movq	%rdi, -8(%rbp)
	movq	%rsi, -16(%rbp)
	movq	%rdx, -24(%rbp)
	cmpq	$0, -16(%rbp)
	jne	.L158
	movq	-8(%rbp), %rax
	jmp	.L159
.L158:
	movq	-16(%rbp), %rax
	leaq	0(,%rax,8), %rdx
	movq	-8(%rbp), %rax
	leaq	(%rdx,%rax), %rcx
	movq	-24(%rbp), %rdx
	movq	-8(%rbp), %rax
	movq	%rcx, %rsi
	movq	%rax, %rdi
	call	_ZSt8__fill_aIPddEvT_S1_RKT0_
	movq	-16(%rbp), %rax
	leaq	0(,%rax,8), %rdx
	movq	-8(%rbp), %rax
	addq	%rdx, %rax
.L159:
	leave
	.cfi_def_cfa 7, 8
	ret
	.cfi_endproc
.LFE4577:
	.size	_ZSt10__fill_n_aIPdmdET_S1_T0_RKT1_St26random_access_iterator_tag, .-_ZSt10__fill_n_aIPdmdET_S1_T0_RKT1_St26random_access_iterator_tag
	.section	.text._ZSt8__fill_aIPddEvT_S1_RKT0_,"axG",@progbits,_ZSt8__fill_aIPddEvT_S1_RKT0_,comdat
	.weak	_ZSt8__fill_aIPddEvT_S1_RKT0_
	.type	_ZSt8__fill_aIPddEvT_S1_RKT0_, @function
_ZSt8__fill_aIPddEvT_S1_RKT0_:
.LFB4580:
	.cfi_startproc
	endbr64
	pushq	%rbp
	.cfi_def_cfa_offset 16
	.cfi_offset 6, -16
	movq	%rsp, %rbp
	.cfi_def_cfa_register 6
	subq	$32, %rsp
	movq	%rdi, -8(%rbp)
	movq	%rsi, -16(%rbp)
	movq	%rdx, -24(%rbp)
	movq	-24(%rbp), %rdx
	movq	-16(%rbp), %rcx
	movq	-8(%rbp), %rax
	movq	%rcx, %rsi
	movq	%rax, %rdi
	call	_ZSt9__fill_a1IPddEN9__gnu_cxx11__enable_ifIXsrSt11__is_scalarIT0_E7__valueEvE6__typeET_S8_RKS4_
	nop
	leave
	.cfi_def_cfa 7, 8
	ret
	.cfi_endproc
.LFE4580:
	.size	_ZSt8__fill_aIPddEvT_S1_RKT0_, .-_ZSt8__fill_aIPddEvT_S1_RKT0_
	.section	.text._ZSt9__fill_a1IPddEN9__gnu_cxx11__enable_ifIXsrSt11__is_scalarIT0_E7__valueEvE6__typeET_S8_RKS4_,"axG",@progbits,_ZSt9__fill_a1IPddEN9__gnu_cxx11__enable_ifIXsrSt11__is_scalarIT0_E7__valueEvE6__typeET_S8_RKS4_,comdat
	.weak	_ZSt9__fill_a1IPddEN9__gnu_cxx11__enable_ifIXsrSt11__is_scalarIT0_E7__valueEvE6__typeET_S8_RKS4_
	.type	_ZSt9__fill_a1IPddEN9__gnu_cxx11__enable_ifIXsrSt11__is_scalarIT0_E7__valueEvE6__typeET_S8_RKS4_, @function
_ZSt9__fill_a1IPddEN9__gnu_cxx11__enable_ifIXsrSt11__is_scalarIT0_E7__valueEvE6__typeET_S8_RKS4_:
.LFB4581:
	.cfi_startproc
	endbr64
	pushq	%rbp
	.cfi_def_cfa_offset 16
	.cfi_offset 6, -16
	movq	%rsp, %rbp
	.cfi_def_cfa_register 6
	movq	%rdi, -24(%rbp)
	movq	%rsi, -32(%rbp)
	movq	%rdx, -40(%rbp)
	movq	-40(%rbp), %rax
	movsd	(%rax), %xmm0
	movsd	%xmm0, -8(%rbp)
	jmp	.L162
.L163:
	movq	-24(%rbp), %rax
	movsd	-8(%rbp), %xmm0
	movsd	%xmm0, (%rax)
	addq	$8, -24(%rbp)
.L162:
	movq	-24(%rbp), %rax
	cmpq	-32(%rbp), %rax
	jne	.L163
	nop
	nop
	popq	%rbp
	.cfi_def_cfa 7, 8
	ret
	.cfi_endproc
.LFE4581:
	.size	_ZSt9__fill_a1IPddEN9__gnu_cxx11__enable_ifIXsrSt11__is_scalarIT0_E7__valueEvE6__typeET_S8_RKS4_, .-_ZSt9__fill_a1IPddEN9__gnu_cxx11__enable_ifIXsrSt11__is_scalarIT0_E7__valueEvE6__typeET_S8_RKS4_
	.text
	.type	_Z41__static_initialization_and_destruction_0ii, @function
_Z41__static_initialization_and_destruction_0ii:
.LFB4582:
	.cfi_startproc
	endbr64
	pushq	%rbp
	.cfi_def_cfa_offset 16
	.cfi_offset 6, -16
	movq	%rsp, %rbp
	.cfi_def_cfa_register 6
	subq	$16, %rsp
	movl	%edi, -4(%rbp)
	movl	%esi, -8(%rbp)
	cmpl	$1, -4(%rbp)
	jne	.L166
	cmpl	$65535, -8(%rbp)
	jne	.L166
	leaq	_ZStL8__ioinit(%rip), %rax
	movq	%rax, %rdi
	call	_ZNSt8ios_base4InitC1Ev@PLT
	leaq	__dso_handle(%rip), %rax
	movq	%rax, %rdx
	leaq	_ZStL8__ioinit(%rip), %rax
	movq	%rax, %rsi
	movq	_ZNSt8ios_base4InitD1Ev@GOTPCREL(%rip), %rax
	movq	%rax, %rdi
	call	__cxa_atexit@PLT
.L166:
	nop
	leave
	.cfi_def_cfa 7, 8
	ret
	.cfi_endproc
.LFE4582:
	.size	_Z41__static_initialization_and_destruction_0ii, .-_Z41__static_initialization_and_destruction_0ii
	.type	_GLOBAL__sub_I__Z9factoriali, @function
_GLOBAL__sub_I__Z9factoriali:
.LFB4583:
	.cfi_startproc
	endbr64
	pushq	%rbp
	.cfi_def_cfa_offset 16
	.cfi_offset 6, -16
	movq	%rsp, %rbp
	.cfi_def_cfa_register 6
	movl	$65535, %esi
	movl	$1, %edi
	call	_Z41__static_initialization_and_destruction_0ii
	popq	%rbp
	.cfi_def_cfa 7, 8
	ret
	.cfi_endproc
.LFE4583:
	.size	_GLOBAL__sub_I__Z9factoriali, .-_GLOBAL__sub_I__Z9factoriali
	.section	.init_array,"aw"
	.align 8
	.quad	_GLOBAL__sub_I__Z9factoriali
	.section	.rodata
	.align 8
.LC0:
	.long	0
	.long	0
	.align 8
.LC1:
	.long	0
	.long	1072693248
	.hidden	DW.ref.__gxx_personality_v0
	.weak	DW.ref.__gxx_personality_v0
	.section	.data.rel.local.DW.ref.__gxx_personality_v0,"awG",@progbits,DW.ref.__gxx_personality_v0,comdat
	.align 8
	.type	DW.ref.__gxx_personality_v0, @object
	.size	DW.ref.__gxx_personality_v0, 8
DW.ref.__gxx_personality_v0:
	.quad	__gxx_personality_v0
	.hidden	__dso_handle
	.ident	"GCC: (Ubuntu 11.4.0-1ubuntu1~22.04) 11.4.0"
	.section	.note.GNU-stack,"",@progbits
	.section	.note.gnu.property,"a"
	.align 8
	.long	1f - 0f
	.long	4f - 1f
	.long	5
0:
	.string	"GNU"
1:
	.align 8
	.long	0xc0000002
	.long	3f - 2f
2:
	.long	0x3
3:
	.align 8
4:
