test1_1:     file format elf64-x86-64


Disassembly of section .init:

0000000000002000 <_init>:
    2000:       f3 0f 1e fa             endbr64
    2004:       48 83 ec 08             sub    $0x8,%rsp
    2008:       48 8b 05 d9 2f 00 00    mov    0x2fd9(%rip),%rax        # 4fe8 <__gmon_start__@Base>
    200f:       48 85 c0                test   %rax,%rax
    2012:       74 02                   je     2016 <_init+0x16>
    2014:       ff d0                   call   *%rax
    2016:       48 83 c4 08             add    $0x8,%rsp
    201a:       c3                      ret

Disassembly of section .plt:

0000000000002020 <.plt>:
    2020:       ff 35 ba 2e 00 00       push   0x2eba(%rip)        # 4ee0 <_GLOBAL_OFFSET_TABLE_+0x8>
    2026:       f2 ff 25 bb 2e 00 00    bnd jmp *0x2ebb(%rip)        # 4ee8 <_GLOBAL_OFFSET_TABLE_+0x10>
    202d:       0f 1f 00                nopl   (%rax)
    2030:       f3 0f 1e fa             endbr64
    2034:       68 00 00 00 00          push   $0x0
    2039:       f2 e9 e1 ff ff ff       bnd jmp 2020 <_init+0x20>
    203f:       90                      nop
    2040:       f3 0f 1e fa             endbr64
    2044:       68 01 00 00 00          push   $0x1
    2049:       f2 e9 d1 ff ff ff       bnd jmp 2020 <_init+0x20>
    204f:       90                      nop
    2050:       f3 0f 1e fa             endbr64
    2054:       68 02 00 00 00          push   $0x2
    2059:       f2 e9 c1 ff ff ff       bnd jmp 2020 <_init+0x20>
    205f:       90                      nop
    2060:       f3 0f 1e fa             endbr64
    2064:       68 03 00 00 00          push   $0x3
    2069:       f2 e9 b1 ff ff ff       bnd jmp 2020 <_init+0x20>
    206f:       90                      nop
    2070:       f3 0f 1e fa             endbr64
    2074:       68 04 00 00 00          push   $0x4
    2079:       f2 e9 a1 ff ff ff       bnd jmp 2020 <_init+0x20>
    207f:       90                      nop
    2080:       f3 0f 1e fa             endbr64
    2084:       68 05 00 00 00          push   $0x5
    2089:       f2 e9 91 ff ff ff       bnd jmp 2020 <_init+0x20>
    208f:       90                      nop
    2090:       f3 0f 1e fa             endbr64
    2094:       68 06 00 00 00          push   $0x6
    2099:       f2 e9 81 ff ff ff       bnd jmp 2020 <_init+0x20>
    209f:       90                      nop
    20a0:       f3 0f 1e fa             endbr64
    20a4:       68 07 00 00 00          push   $0x7
    20a9:       f2 e9 71 ff ff ff       bnd jmp 2020 <_init+0x20>
    20af:       90                      nop
    20b0:       f3 0f 1e fa             endbr64
    20b4:       68 08 00 00 00          push   $0x8
    20b9:       f2 e9 61 ff ff ff       bnd jmp 2020 <_init+0x20>
    20bf:       90                      nop
    20c0:       f3 0f 1e fa             endbr64
    20c4:       68 09 00 00 00          push   $0x9
    20c9:       f2 e9 51 ff ff ff       bnd jmp 2020 <_init+0x20>
    20cf:       90                      nop
    20d0:       f3 0f 1e fa             endbr64
    20d4:       68 0a 00 00 00          push   $0xa
    20d9:       f2 e9 41 ff ff ff       bnd jmp 2020 <_init+0x20>
    20df:       90                      nop
    20e0:       f3 0f 1e fa             endbr64
    20e4:       68 0b 00 00 00          push   $0xb
    20e9:       f2 e9 31 ff ff ff       bnd jmp 2020 <_init+0x20>
    20ef:       90                      nop
    20f0:       f3 0f 1e fa             endbr64
    20f4:       68 0c 00 00 00          push   $0xc
    20f9:       f2 e9 21 ff ff ff       bnd jmp 2020 <_init+0x20>
    20ff:       90                      nop
    2100:       f3 0f 1e fa             endbr64
    2104:       68 0d 00 00 00          push   $0xd
    2109:       f2 e9 11 ff ff ff       bnd jmp 2020 <_init+0x20>
    210f:       90                      nop
    2110:       f3 0f 1e fa             endbr64
    2114:       68 0e 00 00 00          push   $0xe
    2119:       f2 e9 01 ff ff ff       bnd jmp 2020 <_init+0x20>
    211f:       90                      nop
    2120:       f3 0f 1e fa             endbr64
    2124:       68 0f 00 00 00          push   $0xf
    2129:       f2 e9 f1 fe ff ff       bnd jmp 2020 <_init+0x20>
    212f:       90                      nop
    2130:       f3 0f 1e fa             endbr64
    2134:       68 10 00 00 00          push   $0x10
    2139:       f2 e9 e1 fe ff ff       bnd jmp 2020 <_init+0x20>
    213f:       90                      nop
    2140:       f3 0f 1e fa             endbr64
    2144:       68 11 00 00 00          push   $0x11
    2149:       f2 e9 d1 fe ff ff       bnd jmp 2020 <_init+0x20>
    214f:       90                      nop
    2150:       f3 0f 1e fa             endbr64
    2154:       68 12 00 00 00          push   $0x12
    2159:       f2 e9 c1 fe ff ff       bnd jmp 2020 <_init+0x20>
    215f:       90                      nop
    2160:       f3 0f 1e fa             endbr64
    2164:       68 13 00 00 00          push   $0x13
    2169:       f2 e9 b1 fe ff ff       bnd jmp 2020 <_init+0x20>
    216f:       90                      nop
    2170:       f3 0f 1e fa             endbr64
    2174:       68 14 00 00 00          push   $0x14
    2179:       f2 e9 a1 fe ff ff       bnd jmp 2020 <_init+0x20>
    217f:       90                      nop
    2180:       f3 0f 1e fa             endbr64
    2184:       68 15 00 00 00          push   $0x15
    2189:       f2 e9 91 fe ff ff       bnd jmp 2020 <_init+0x20>
    218f:       90                      nop
    2190:       f3 0f 1e fa             endbr64
    2194:       68 16 00 00 00          push   $0x16
    2199:       f2 e9 81 fe ff ff       bnd jmp 2020 <_init+0x20>
    219f:       90                      nop
    21a0:       f3 0f 1e fa             endbr64
    21a4:       68 17 00 00 00          push   $0x17
    21a9:       f2 e9 71 fe ff ff       bnd jmp 2020 <_init+0x20>
    21af:       90                      nop
    21b0:       f3 0f 1e fa             endbr64
    21b4:       68 18 00 00 00          push   $0x18
    21b9:       f2 e9 61 fe ff ff       bnd jmp 2020 <_init+0x20>
    21bf:       90                      nop
    21c0:       f3 0f 1e fa             endbr64
    21c4:       68 19 00 00 00          push   $0x19
    21c9:       f2 e9 51 fe ff ff       bnd jmp 2020 <_init+0x20>
    21cf:       90                      nop
    21d0:       f3 0f 1e fa             endbr64
    21d4:       68 1a 00 00 00          push   $0x1a
    21d9:       f2 e9 41 fe ff ff       bnd jmp 2020 <_init+0x20>
    21df:       90                      nop

Disassembly of section .plt.got:

00000000000021e0 <__cxa_finalize@plt>:
    21e0:       f3 0f 1e fa             endbr64
    21e4:       f2 ff 25 dd 2d 00 00    bnd jmp *0x2ddd(%rip)        # 4fc8 <__cxa_finalize@GLIBC_2.2.5>
    21eb:       0f 1f 44 00 00          nopl   0x0(%rax,%rax,1)

Disassembly of section .plt.sec:

00000000000021f0 <_ZNSaIcED2Ev@plt>:
    21f0:       f3 0f 1e fa             endbr64
    21f4:       f2 ff 25 f5 2c 00 00    bnd jmp *0x2cf5(%rip)        # 4ef0 <_ZNSaIcED2Ev@GLIBCXX_3.4>
    21fb:       0f 1f 44 00 00          nopl   0x0(%rax,%rax,1)

0000000000002200 <__cxa_begin_catch@plt>:
    2200:       f3 0f 1e fa             endbr64
    2204:       f2 ff 25 ed 2c 00 00    bnd jmp *0x2ced(%rip)        # 4ef8 <__cxa_begin_catch@CXXABI_1.3>
    220b:       0f 1f 44 00 00          nopl   0x0(%rax,%rax,1)

0000000000002210 <strlen@plt>:
    2210:       f3 0f 1e fa             endbr64
    2214:       f2 ff 25 e5 2c 00 00    bnd jmp *0x2ce5(%rip)        # 4f00 <strlen@GLIBC_2.2.5>
    221b:       0f 1f 44 00 00          nopl   0x0(%rax,%rax,1)

0000000000002220 <_ZNSt7__cxx1112basic_stringIcSt11char_traitsIcESaIcEED1Ev@plt>:
    2220:       f3 0f 1e fa             endbr64
    2224:       f2 ff 25 dd 2c 00 00    bnd jmp *0x2cdd(%rip)        # 4f08 <_ZNSt7__cxx1112basic_stringIcSt11char_traitsIcESaIcEED1Ev@GLIBCXX_3.4.21>
    222b:       0f 1f 44 00 00          nopl   0x0(%rax,%rax,1)

0000000000002230 <_ZNSt7__cxx1112basic_stringIcSt11char_traitsIcESaIcEE13_M_set_lengthEm@plt>:
    2230:       f3 0f 1e fa             endbr64
    2234:       f2 ff 25 d5 2c 00 00    bnd jmp *0x2cd5(%rip)        # 4f10 <_ZNSt7__cxx1112basic_stringIcSt11char_traitsIcESaIcEE13_M_set_lengthEm@GLIBCXX_3.4.21>
    223b:       0f 1f 44 00 00          nopl   0x0(%rax,%rax,1)

0000000000002240 <_ZSt19__throw_logic_errorPKc@plt>:
    2240:       f3 0f 1e fa             endbr64
    2244:       f2 ff 25 cd 2c 00 00    bnd jmp *0x2ccd(%rip)        # 4f18 <_ZSt19__throw_logic_errorPKc@GLIBCXX_3.4>
    224b:       0f 1f 44 00 00          nopl   0x0(%rax,%rax,1)

0000000000002250 <_ZNSt7__cxx1112basic_stringIcSt11char_traitsIcESaIcEE13_M_local_dataEv@plt>:
    2250:       f3 0f 1e fa             endbr64
    2254:       f2 ff 25 c5 2c 00 00    bnd jmp *0x2cc5(%rip)        # 4f20 <_ZNSt7__cxx1112basic_stringIcSt11char_traitsIcESaIcEE13_M_local_dataEv@GLIBCXX_3.4.21>
    225b:       0f 1f 44 00 00          nopl   0x0(%rax,%rax,1)

0000000000002260 <_ZNSt7__cxx1112basic_stringIcSt11char_traitsIcESaIcEE7_M_dataEPc@plt>:
    2260:       f3 0f 1e fa             endbr64
    2264:       f2 ff 25 bd 2c 00 00    bnd jmp *0x2cbd(%rip)        # 4f28 <_ZNSt7__cxx1112basic_stringIcSt11char_traitsIcESaIcEE7_M_dataEPc@GLIBCXX_3.4.21>
    226b:       0f 1f 44 00 00          nopl   0x0(%rax,%rax,1)

0000000000002270 <__cxa_atexit@plt>:
    2270:       f3 0f 1e fa             endbr64
    2274:       f2 ff 25 b5 2c 00 00    bnd jmp *0x2cb5(%rip)        # 4f30 <__cxa_atexit@GLIBC_2.2.5>
    227b:       0f 1f 44 00 00          nopl   0x0(%rax,%rax,1)

0000000000002280 <_ZStlsIcSt11char_traitsIcESaIcEERSt13basic_ostreamIT_T0_ES7_RKNSt7__cxx1112basic_stringIS4_S5_T1_EE@plt>:
    2280:       f3 0f 1e fa             endbr64
    2284:       f2 ff 25 ad 2c 00 00    bnd jmp *0x2cad(%rip)        # 4f38 <_ZStlsIcSt11char_traitsIcESaIcEERSt13basic_ostreamIT_T0_ES7_RKNSt7__cxx1112basic_stringIS4_S5_T1_EE@GLIBCXX_3.4.21>
    228b:       0f 1f 44 00 00          nopl   0x0(%rax,%rax,1)

0000000000002290 <_ZStlsISt11char_traitsIcEERSt13basic_ostreamIcT_ES5_PKc@plt>:
    2290:       f3 0f 1e fa             endbr64
    2294:       f2 ff 25 a5 2c 00 00    bnd jmp *0x2ca5(%rip)        # 4f40 <_ZStlsISt11char_traitsIcEERSt13basic_ostreamIcT_ES5_PKc@GLIBCXX_3.4>
    229b:       0f 1f 44 00 00          nopl   0x0(%rax,%rax,1)

00000000000022a0 <_ZNSolsEPFRSoS_E@plt>:
    22a0:       f3 0f 1e fa             endbr64
    22a4:       f2 ff 25 9d 2c 00 00    bnd jmp *0x2c9d(%rip)        # 4f48 <_ZNSolsEPFRSoS_E@GLIBCXX_3.4>
    22ab:       0f 1f 44 00 00          nopl   0x0(%rax,%rax,1)

00000000000022b0 <_ZNSt7__cxx1112basic_stringIcSt11char_traitsIcESaIcEE12_Alloc_hiderC1EPcRKS3_@plt>:
    22b0:       f3 0f 1e fa             endbr64
    22b4:       f2 ff 25 95 2c 00 00    bnd jmp *0x2c95(%rip)        # 4f50 <_ZNSt7__cxx1112basic_stringIcSt11char_traitsIcESaIcEE12_Alloc_hiderC1EPcRKS3_@GLIBCXX_3.4.21>
    22bb:       0f 1f 44 00 00          nopl   0x0(%rax,%rax,1)

00000000000022c0 <_ZNSaIcED1Ev@plt>:
    22c0:       f3 0f 1e fa             endbr64
    22c4:       f2 ff 25 8d 2c 00 00    bnd jmp *0x2c8d(%rip)        # 4f58 <_ZNSaIcED1Ev@GLIBCXX_3.4>
    22cb:       0f 1f 44 00 00          nopl   0x0(%rax,%rax,1)

00000000000022d0 <_ZNKSt7__cxx1112basic_stringIcSt11char_traitsIcESaIcEE7_M_dataEv@plt>:
    22d0:       f3 0f 1e fa             endbr64
    22d4:       f2 ff 25 85 2c 00 00    bnd jmp *0x2c85(%rip)        # 4f60 <_ZNKSt7__cxx1112basic_stringIcSt11char_traitsIcESaIcEE7_M_dataEv@GLIBCXX_3.4.21>
    22db:       0f 1f 44 00 00          nopl   0x0(%rax,%rax,1)

00000000000022e0 <_ZNSt7__cxx1112basic_stringIcSt11char_traitsIcESaIcEE13_S_copy_charsEPcPKcS7_@plt>:
    22e0:       f3 0f 1e fa             endbr64
    22e4:       f2 ff 25 7d 2c 00 00    bnd jmp *0x2c7d(%rip)        # 4f68 <_ZNSt7__cxx1112basic_stringIcSt11char_traitsIcESaIcEE13_S_copy_charsEPcPKcS7_@GLIBCXX_3.4.21>
    22eb:       0f 1f 44 00 00          nopl   0x0(%rax,%rax,1)

00000000000022f0 <__stack_chk_fail@plt>:
    22f0:       f3 0f 1e fa             endbr64
    22f4:       f2 ff 25 75 2c 00 00    bnd jmp *0x2c75(%rip)        # 4f70 <__stack_chk_fail@GLIBC_2.4>
    22fb:       0f 1f 44 00 00          nopl   0x0(%rax,%rax,1)

0000000000002300 <_ZNSt7__cxx1112basic_stringIcSt11char_traitsIcESaIcEE10_M_disposeEv@plt>:
    2300:       f3 0f 1e fa             endbr64
    2304:       f2 ff 25 6d 2c 00 00    bnd jmp *0x2c6d(%rip)        # 4f78 <_ZNSt7__cxx1112basic_stringIcSt11char_traitsIcESaIcEE10_M_disposeEv@GLIBCXX_3.4.21>
    230b:       0f 1f 44 00 00          nopl   0x0(%rax,%rax,1)

0000000000002310 <__cxa_rethrow@plt>:
    2310:       f3 0f 1e fa             endbr64
    2314:       f2 ff 25 65 2c 00 00    bnd jmp *0x2c65(%rip)        # 4f80 <__cxa_rethrow@CXXABI_1.3>
    231b:       0f 1f 44 00 00          nopl   0x0(%rax,%rax,1)

0000000000002320 <_ZNSt8ios_base4InitC1Ev@plt>:
    2320:       f3 0f 1e fa             endbr64
    2324:       f2 ff 25 5d 2c 00 00    bnd jmp *0x2c5d(%rip)        # 4f88 <_ZNSt8ios_base4InitC1Ev@GLIBCXX_3.4>
    232b:       0f 1f 44 00 00          nopl   0x0(%rax,%rax,1)

0000000000002330 <__cxa_end_catch@plt>:
    2330:       f3 0f 1e fa             endbr64
    2334:       f2 ff 25 55 2c 00 00    bnd jmp *0x2c55(%rip)        # 4f90 <__cxa_end_catch@CXXABI_1.3>
    233b:       0f 1f 44 00 00          nopl   0x0(%rax,%rax,1)

0000000000002340 <pow@plt>:
    2340:       f3 0f 1e fa             endbr64
    2344:       f2 ff 25 4d 2c 00 00    bnd jmp *0x2c4d(%rip)        # 4f98 <pow@GLIBC_2.29>
    234b:       0f 1f 44 00 00          nopl   0x0(%rax,%rax,1)

0000000000002350 <_Unwind_Resume@plt>:
    2350:       f3 0f 1e fa             endbr64
    2354:       f2 ff 25 45 2c 00 00    bnd jmp *0x2c45(%rip)        # 4fa0 <_Unwind_Resume@GCC_3.0>
    235b:       0f 1f 44 00 00          nopl   0x0(%rax,%rax,1)

0000000000002360 <_ZNSaIcEC1Ev@plt>:
    2360:       f3 0f 1e fa             endbr64
    2364:       f2 ff 25 3d 2c 00 00    bnd jmp *0x2c3d(%rip)        # 4fa8 <_ZNSaIcEC1Ev@GLIBCXX_3.4>
    236b:       0f 1f 44 00 00          nopl   0x0(%rax,%rax,1)

0000000000002370 <_ZNSt7__cxx1112basic_stringIcSt11char_traitsIcESaIcEE9_M_createERmm@plt>:
    2370:       f3 0f 1e fa             endbr64
    2374:       f2 ff 25 35 2c 00 00    bnd jmp *0x2c35(%rip)        # 4fb0 <_ZNSt7__cxx1112basic_stringIcSt11char_traitsIcESaIcEE9_M_createERmm@GLIBCXX_3.4.21>
    237b:       0f 1f 44 00 00          nopl   0x0(%rax,%rax,1)

0000000000002380 <_ZNSolsEd@plt>:
    2380:       f3 0f 1e fa             endbr64
    2384:       f2 ff 25 2d 2c 00 00    bnd jmp *0x2c2d(%rip)        # 4fb8 <_ZNSolsEd@GLIBCXX_3.4>
    238b:       0f 1f 44 00 00          nopl   0x0(%rax,%rax,1)

0000000000002390 <_ZNSt7__cxx1112basic_stringIcSt11char_traitsIcESaIcEE11_M_capacityEm@plt>:
    2390:       f3 0f 1e fa             endbr64
    2394:       f2 ff 25 25 2c 00 00    bnd jmp *0x2c25(%rip)        # 4fc0 <_ZNSt7__cxx1112basic_stringIcSt11char_traitsIcESaIcEE11_M_capacityEm@GLIBCXX_3.4.21>
    239b:       0f 1f 44 00 00          nopl   0x0(%rax,%rax,1)

Disassembly of section .text:

00000000000023a0 <_start>:
    23a0:       f3 0f 1e fa             endbr64
    23a4:       31 ed                   xor    %ebp,%ebp
    23a6:       49 89 d1                mov    %rdx,%r9
    23a9:       5e                      pop    %rsi
    23aa:       48 89 e2                mov    %rsp,%rdx
    23ad:       48 83 e4 f0             and    $0xfffffffffffffff0,%rsp
    23b1:       50                      push   %rax
    23b2:       54                      push   %rsp
    23b3:       45 31 c0                xor    %r8d,%r8d
    23b6:       31 c9                   xor    %ecx,%ecx
    23b8:       48 8d 3d f9 00 00 00    lea    0xf9(%rip),%rdi        # 24b8 <main>
    23bf:       ff 15 13 2c 00 00       call   *0x2c13(%rip)        # 4fd8 <__libc_start_main@GLIBC_2.34>
    23c5:       f4                      hlt
    23c6:       66 2e 0f 1f 84 00 00    cs nopw 0x0(%rax,%rax,1)
    23cd:       00 00 00

00000000000023d0 <deregister_tm_clones>:
    23d0:       48 8d 3d 41 2c 00 00    lea    0x2c41(%rip),%rdi        # 5018 <__TMC_END__>
    23d7:       48 8d 05 3a 2c 00 00    lea    0x2c3a(%rip),%rax        # 5018 <__TMC_END__>
    23de:       48 39 f8                cmp    %rdi,%rax
    23e1:       74 15                   je     23f8 <deregister_tm_clones+0x28>
    23e3:       48 8b 05 f6 2b 00 00    mov    0x2bf6(%rip),%rax        # 4fe0 <_ITM_deregisterTMCloneTable@Base>
    23ea:       48 85 c0                test   %rax,%rax
    23ed:       74 09                   je     23f8 <deregister_tm_clones+0x28>
    23ef:       ff e0                   jmp    *%rax
    23f1:       0f 1f 80 00 00 00 00    nopl   0x0(%rax)
    23f8:       c3                      ret
    23f9:       0f 1f 80 00 00 00 00    nopl   0x0(%rax)

0000000000002400 <register_tm_clones>:
    2400:       48 8d 3d 11 2c 00 00    lea    0x2c11(%rip),%rdi        # 5018 <__TMC_END__>
    2407:       48 8d 35 0a 2c 00 00    lea    0x2c0a(%rip),%rsi        # 5018 <__TMC_END__>
    240e:       48 29 fe                sub    %rdi,%rsi
    2411:       48 89 f0                mov    %rsi,%rax
    2414:       48 c1 ee 3f             shr    $0x3f,%rsi
    2418:       48 c1 f8 03             sar    $0x3,%rax
    241c:       48 01 c6                add    %rax,%rsi
    241f:       48 d1 fe                sar    %rsi
    2422:       74 14                   je     2438 <register_tm_clones+0x38>
    2424:       48 8b 05 c5 2b 00 00    mov    0x2bc5(%rip),%rax        # 4ff0 <_ITM_registerTMCloneTable@Base>
    242b:       48 85 c0                test   %rax,%rax
    242e:       74 08                   je     2438 <register_tm_clones+0x38>
    2430:       ff e0                   jmp    *%rax
    2432:       66 0f 1f 44 00 00       nopw   0x0(%rax,%rax,1)
    2438:       c3                      ret
    2439:       0f 1f 80 00 00 00 00    nopl   0x0(%rax)

0000000000002440 <__do_global_dtors_aux>:
    2440:       f3 0f 1e fa             endbr64
    2444:       80 3d 05 2d 00 00 00    cmpb   $0x0,0x2d05(%rip)        # 5150 <completed.0>
    244b:       75 2b                   jne    2478 <__do_global_dtors_aux+0x38>
    244d:       55                      push   %rbp
    244e:       48 83 3d 72 2b 00 00    cmpq   $0x0,0x2b72(%rip)        # 4fc8 <__cxa_finalize@GLIBC_2.2.5>
    2455:       00
    2456:       48 89 e5                mov    %rsp,%rbp
    2459:       74 0c                   je     2467 <__do_global_dtors_aux+0x27>
    245b:       48 8b 3d a6 2b 00 00    mov    0x2ba6(%rip),%rdi        # 5008 <__dso_handle>
    2462:       e8 79 fd ff ff          call   21e0 <__cxa_finalize@plt>
    2467:       e8 64 ff ff ff          call   23d0 <deregister_tm_clones>
    246c:       c6 05 dd 2c 00 00 01    movb   $0x1,0x2cdd(%rip)        # 5150 <completed.0>
    2473:       5d                      pop    %rbp
    2474:       c3                      ret
    2475:       0f 1f 00                nopl   (%rax)
    2478:       c3                      ret
    2479:       0f 1f 80 00 00 00 00    nopl   0x0(%rax)

0000000000002480 <frame_dummy>:
    2480:       f3 0f 1e fa             endbr64
    2484:       e9 77 ff ff ff          jmp    2400 <register_tm_clones>

0000000000002489 <_Z13calculateAread>:
    2489:       f3 0f 1e fa             endbr64
    248d:       55                      push   %rbp
    248e:       48 89 e5                mov    %rsp,%rbp
    2491:       f2 0f 11 45 f8          movsd  %xmm0,-0x8(%rbp)
    2496:       f2 0f 10 4d f8          movsd  -0x8(%rbp),%xmm1
    249b:       f2 0f 10 05 b5 0b 00    movsd  0xbb5(%rip),%xmm0        # 3058 <_ZL9MAX_COUNT+0x50>
    24a2:       00
    24a3:       f2 0f 59 c1             mulsd  %xmm1,%xmm0
    24a7:       f2 0f 59 45 f8          mulsd  -0x8(%rbp),%xmm0
    24ac:       66 48 0f 7e c0          movq   %xmm0,%rax
    24b1:       66 48 0f 6e c0          movq   %rax,%xmm0
    24b6:       5d                      pop    %rbp
    24b7:       c3                      ret

00000000000024b8 <main>:
    24b8:       f3 0f 1e fa             endbr64
    24bc:       55                      push   %rbp
    24bd:       48 89 e5                mov    %rsp,%rbp
    24c0:       53                      push   %rbx
    24c1:       48 83 ec 48             sub    $0x48,%rsp
    24c5:       64 48 8b 04 25 28 00    mov    %fs:0x28,%rax
    24cc:       00 00
    24ce:       48 89 45 e8             mov    %rax,-0x18(%rbp)
    24d2:       31 c0                   xor    %eax,%eax
    24d4:       48 8d 45 b8             lea    -0x48(%rbp),%rax
    24d8:       48 89 c7                mov    %rax,%rdi
    24db:       e8 80 fe ff ff          call   2360 <_ZNSaIcEC1Ev@plt>
    24e0:       48 8d 55 b8             lea    -0x48(%rbp),%rdx
    24e4:       48 8d 45 c0             lea    -0x40(%rbp),%rax
    24e8:       48 8d 0d 2b 0b 00 00    lea    0xb2b(%rip),%rcx        # 301a <_ZL9MAX_COUNT+0x12>
    24ef:       48 89 ce                mov    %rcx,%rsi
    24f2:       48 89 c7                mov    %rax,%rdi
    24f5:       e8 50 03 00 00          call   284a <_ZNSt7__cxx1112basic_stringIcSt11char_traitsIcESaIcEEC1IS3_EEPKcRKS3_>
    24fa:       48 8d 45 b8             lea    -0x48(%rbp),%rax
    24fe:       48 89 c7                mov    %rax,%rdi
    2501:       e8 ba fd ff ff          call   22c0 <_ZNSaIcED1Ev@plt>
    2506:       48 8d 45 c0             lea    -0x40(%rbp),%rax
    250a:       48 89 c7                mov    %rax,%rdi
    250d:       e8 4b 01 00 00          call   265d <_Z12printMessageRKNSt7__cxx1112basic_stringIcSt11char_traitsIcESaIcEEE>
    2512:       48 8b 15 47 0b 00 00    mov    0xb47(%rip),%rdx        # 3060 <_ZL9MAX_COUNT+0x58>
    2519:       48 8d 45 b8             lea    -0x48(%rbp),%rax
    251d:       66 48 0f 6e c2          movq   %rdx,%xmm0
    2522:       48 89 c7                mov    %rax,%rdi
    2525:       e8 6e 01 00 00          call   2698 <_ZN6CircleC1Ed>
    252a:       48 8d 45 b8             lea    -0x48(%rbp),%rax
    252e:       48 89 c7                mov    %rax,%rdi
    2531:       e8 c2 01 00 00          call   26f8 <_ZNK6Circle7displayEv>
    2536:       8b 05 18 2c 00 00       mov    0x2c18(%rip),%eax        # 5154 <global_counter>
    253c:       83 c0 01                add    $0x1,%eax
    253f:       89 05 0f 2c 00 00       mov    %eax,0x2c0f(%rip)        # 5154 <global_counter>
    2545:       bb 00 00 00 00          mov    $0x0,%ebx
    254a:       48 8d 45 c0             lea    -0x40(%rbp),%rax
    254e:       48 89 c7                mov    %rax,%rdi
    2551:       e8 ca fc ff ff          call   2220 <_ZNSt7__cxx1112basic_stringIcSt11char_traitsIcESaIcEED1Ev@plt>
    2556:       89 d8                   mov    %ebx,%eax
    2558:       48 8b 55 e8             mov    -0x18(%rbp),%rdx
    255c:       64 48 2b 14 25 28 00    sub    %fs:0x28,%rdx
    2563:       00 00
    2565:       74 43                   je     25aa <main+0xf2>
    2567:       eb 3c                   jmp    25a5 <main+0xed>
    2569:       f3 0f 1e fa             endbr64
    256d:       48 89 c3                mov    %rax,%rbx
    2570:       48 8d 45 b8             lea    -0x48(%rbp),%rax
    2574:       48 89 c7                mov    %rax,%rdi
    2577:       e8 44 fd ff ff          call   22c0 <_ZNSaIcED1Ev@plt>
    257c:       48 89 d8                mov    %rbx,%rax
    257f:       48 89 c7                mov    %rax,%rdi
    2582:       e8 c9 fd ff ff          call   2350 <_Unwind_Resume@plt>
    2587:       f3 0f 1e fa             endbr64
    258b:       48 89 c3                mov    %rax,%rbx
    258e:       48 8d 45 c0             lea    -0x40(%rbp),%rax
    2592:       48 89 c7                mov    %rax,%rdi
    2595:       e8 86 fc ff ff          call   2220 <_ZNSt7__cxx1112basic_stringIcSt11char_traitsIcESaIcEED1Ev@plt>
    259a:       48 89 d8                mov    %rbx,%rax
    259d:       48 89 c7                mov    %rax,%rdi
    25a0:       e8 ab fd ff ff          call   2350 <_Unwind_Resume@plt>
    25a5:       e8 46 fd ff ff          call   22f0 <__stack_chk_fail@plt>
    25aa:       48 8b 5d f8             mov    -0x8(%rbp),%rbx
    25ae:       c9                      leave
    25af:       c3                      ret

00000000000025b0 <_Z41__static_initialization_and_destruction_0ii>:
    25b0:       f3 0f 1e fa             endbr64
    25b4:       55                      push   %rbp
    25b5:       48 89 e5                mov    %rsp,%rbp
    25b8:       48 83 ec 10             sub    $0x10,%rsp
    25bc:       89 7d fc                mov    %edi,-0x4(%rbp)
    25bf:       89 75 f8                mov    %esi,-0x8(%rbp)
    25c2:       83 7d fc 01             cmpl   $0x1,-0x4(%rbp)
    25c6:       75 3b                   jne    2603 <_Z41__static_initialization_and_destruction_0ii+0x53>
    25c8:       81 7d f8 ff ff 00 00    cmpl   $0xffff,-0x8(%rbp)
    25cf:       75 32                   jne    2603 <_Z41__static_initialization_and_destruction_0ii+0x53>
    25d1:       48 8d 05 80 2b 00 00    lea    0x2b80(%rip),%rax        # 5158 <_ZStL8__ioinit>
    25d8:       48 89 c7                mov    %rax,%rdi
    25db:       e8 40 fd ff ff          call   2320 <_ZNSt8ios_base4InitC1Ev@plt>
    25e0:       48 8d 05 21 2a 00 00    lea    0x2a21(%rip),%rax        # 5008 <__dso_handle>
    25e7:       48 89 c2                mov    %rax,%rdx
    25ea:       48 8d 05 67 2b 00 00    lea    0x2b67(%rip),%rax        # 5158 <_ZStL8__ioinit>
    25f1:       48 89 c6                mov    %rax,%rsi
    25f4:       48 8b 05 fd 29 00 00    mov    0x29fd(%rip),%rax        # 4ff8 <_ZNSt8ios_base4InitD1Ev@GLIBCXX_3.4>
    25fb:       48 89 c7                mov    %rax,%rdi
    25fe:       e8 6d fc ff ff          call   2270 <__cxa_atexit@plt>
    2603:       90                      nop
    2604:       c9                      leave
    2605:       c3                      ret

0000000000002606 <_GLOBAL__sub_I_global_counter>:
    2606:       f3 0f 1e fa             endbr64
    260a:       55                      push   %rbp
    260b:       48 89 e5                mov    %rsp,%rbp
    260e:       be ff ff 00 00          mov    $0xffff,%esi
    2613:       bf 01 00 00 00          mov    $0x1,%edi
    2618:       e8 93 ff ff ff          call   25b0 <_Z41__static_initialization_and_destruction_0ii>
    261d:       5d                      pop    %rbp
    261e:       c3                      ret

000000000000261f <_ZNSt11char_traitsIcE6lengthEPKc>:
    261f:       f3 0f 1e fa             endbr64
    2623:       55                      push   %rbp
    2624:       48 89 e5                mov    %rsp,%rbp
    2627:       48 83 ec 20             sub    $0x20,%rsp
    262b:       48 89 7d e8             mov    %rdi,-0x18(%rbp)
    262f:       48 8b 45 e8             mov    -0x18(%rbp),%rax
    2633:       48 89 45 f8             mov    %rax,-0x8(%rbp)
    2637:       b8 00 00 00 00          mov    $0x0,%eax
    263c:       84 c0                   test   %al,%al
    263e:       74 0e                   je     264e <_ZNSt11char_traitsIcE6lengthEPKc+0x2f>
    2640:       48 8b 45 e8             mov    -0x18(%rbp),%rax
    2644:       48 89 c7                mov    %rax,%rdi
    2647:       e8 36 01 00 00          call   2782 <_ZN9__gnu_cxx11char_traitsIcE6lengthEPKc>
    264c:       eb 0d                   jmp    265b <_ZNSt11char_traitsIcE6lengthEPKc+0x3c>
    264e:       48 8b 45 e8             mov    -0x18(%rbp),%rax
    2652:       48 89 c7                mov    %rax,%rdi
    2655:       e8 b6 fb ff ff          call   2210 <strlen@plt>
    265a:       90                      nop
    265b:       c9                      leave
    265c:       c3                      ret

000000000000265d <_Z12printMessageRKNSt7__cxx1112basic_stringIcSt11char_traitsIcESaIcEEE>:
    265d:       f3 0f 1e fa             endbr64
    2661:       55                      push   %rbp
    2662:       48 89 e5                mov    %rsp,%rbp
    2665:       48 83 ec 10             sub    $0x10,%rsp
    2669:       48 89 7d f8             mov    %rdi,-0x8(%rbp)
    266d:       48 8b 45 f8             mov    -0x8(%rbp),%rax
    2671:       48 89 c6                mov    %rax,%rsi
    2674:       48 8d 05 c5 29 00 00    lea    0x29c5(%rip),%rax        # 5040 <_ZSt4cout@GLIBCXX_3.4>
    267b:       48 89 c7                mov    %rax,%rdi
    267e:       e8 fd fb ff ff          call   2280 <_ZStlsIcSt11char_traitsIcESaIcEERSt13basic_ostreamIT_T0_ES7_RKNSt7__cxx1112basic_stringIS4_S5_T1_EE@plt>
    2683:       48 8b 15 46 29 00 00    mov    0x2946(%rip),%rdx        # 4fd0 <_ZSt4endlIcSt11char_traitsIcEERSt13basic_ostreamIT_T0_ES6_@GLIBCXX_3.4>
    268a:       48 89 d6                mov    %rdx,%rsi
    268d:       48 89 c7                mov    %rax,%rdi
    2690:       e8 0b fc ff ff          call   22a0 <_ZNSolsEPFRSoS_E@plt>
    2695:       90                      nop
    2696:       c9                      leave
    2697:       c3                      ret

0000000000002698 <_ZN6CircleC1Ed>:
    2698:       f3 0f 1e fa             endbr64
    269c:       55                      push   %rbp
    269d:       48 89 e5                mov    %rsp,%rbp
    26a0:       48 89 7d f8             mov    %rdi,-0x8(%rbp)
    26a4:       f2 0f 11 45 f0          movsd  %xmm0,-0x10(%rbp)
    26a9:       48 8b 45 f8             mov    -0x8(%rbp),%rax
    26ad:       f2 0f 10 45 f0          movsd  -0x10(%rbp),%xmm0
    26b2:       f2 0f 11 00             movsd  %xmm0,(%rax)
    26b6:       90                      nop
    26b7:       5d                      pop    %rbp
    26b8:       c3                      ret
    26b9:       90                      nop

00000000000026ba <_ZNK6Circle4areaEv>:
    26ba:       f3 0f 1e fa             endbr64
    26be:       55                      push   %rbp
    26bf:       48 89 e5                mov    %rsp,%rbp
    26c2:       48 83 ec 10             sub    $0x10,%rsp
    26c6:       48 89 7d f8             mov    %rdi,-0x8(%rbp)
    26ca:       48 8b 45 f8             mov    -0x8(%rbp),%rax
    26ce:       48 8b 00                mov    (%rax),%rax
    26d1:       bf 02 00 00 00          mov    $0x2,%edi
    26d6:       66 48 0f 6e c0          movq   %rax,%xmm0
    26db:       e8 2f 01 00 00          call   280f <_ZSt3powIdiEN9__gnu_cxx11__promote_2IT_T0_NS0_9__promoteIS2_XsrSt12__is_integerIS2_E7__valueEE6__typeENS4_IS3_XsrS5_IS3_E7__valueEE6__typeEE6__typeES2_S3_>
    26e0:       f2 0f 10 0d 70 09 00    movsd  0x970(%rip),%xmm1        # 3058 <_ZL9MAX_COUNT+0x50>
    26e7:       00
    26e8:       f2 0f 59 c1             mulsd  %xmm1,%xmm0
    26ec:       66 48 0f 7e c0          movq   %xmm0,%rax
    26f1:       66 48 0f 6e c0          movq   %rax,%xmm0
    26f6:       c9                      leave
    26f7:       c3                      ret

00000000000026f8 <_ZNK6Circle7displayEv>:
    26f8:       f3 0f 1e fa             endbr64
    26fc:       55                      push   %rbp
    26fd:       48 89 e5                mov    %rsp,%rbp
    2700:       53                      push   %rbx
    2701:       48 83 ec 18             sub    $0x18,%rsp
    2705:       48 89 7d e8             mov    %rdi,-0x18(%rbp)
    2709:       48 8d 05 fc 08 00 00    lea    0x8fc(%rip),%rax        # 300c <_ZL9MAX_COUNT+0x4>
    2710:       48 89 c6                mov    %rax,%rsi
    2713:       48 8d 05 26 29 00 00    lea    0x2926(%rip),%rax        # 5040 <_ZSt4cout@GLIBCXX_3.4>
    271a:       48 89 c7                mov    %rax,%rdi
    271d:       e8 6e fb ff ff          call   2290 <_ZStlsISt11char_traitsIcEERSt13basic_ostreamIcT_ES5_PKc@plt>
    2722:       48 89 c3                mov    %rax,%rbx
    2725:       48 8b 45 e8             mov    -0x18(%rbp),%rax
    2729:       48 89 c7                mov    %rax,%rdi
    272c:       e8 89 ff ff ff          call   26ba <_ZNK6Circle4areaEv>
    2731:       66 48 0f 7e c0          movq   %xmm0,%rax
    2736:       66 48 0f 6e c0          movq   %rax,%xmm0
    273b:       48 89 df                mov    %rbx,%rdi
    273e:       e8 3d fc ff ff          call   2380 <_ZNSolsEd@plt>
    2743:       48 8b 15 86 28 00 00    mov    0x2886(%rip),%rdx        # 4fd0 <_ZSt4endlIcSt11char_traitsIcEERSt13basic_ostreamIT_T0_ES6_@GLIBCXX_3.4>
    274a:       48 89 d6                mov    %rdx,%rsi
    274d:       48 89 c7                mov    %rax,%rdi
    2750:       e8 4b fb ff ff          call   22a0 <_ZNSolsEPFRSoS_E@plt>
    2755:       90                      nop
    2756:       48 8b 5d f8             mov    -0x8(%rbp),%rbx
    275a:       c9                      leave
    275b:       c3                      ret

000000000000275c <_ZN9__gnu_cxx11char_traitsIcE2eqERKcS3_>:
    275c:       f3 0f 1e fa             endbr64
    2760:       55                      push   %rbp
    2761:       48 89 e5                mov    %rsp,%rbp
    2764:       48 89 7d f8             mov    %rdi,-0x8(%rbp)
    2768:       48 89 75 f0             mov    %rsi,-0x10(%rbp)
    276c:       48 8b 45 f8             mov    -0x8(%rbp),%rax
    2770:       0f b6 10                movzbl (%rax),%edx
    2773:       48 8b 45 f0             mov    -0x10(%rbp),%rax
    2777:       0f b6 00                movzbl (%rax),%eax
    277a:       38 c2                   cmp    %al,%dl
    277c:       0f 94 c0                sete   %al
    277f:       5d                      pop    %rbp
    2780:       c3                      ret
    2781:       90                      nop

0000000000002782 <_ZN9__gnu_cxx11char_traitsIcE6lengthEPKc>:
    2782:       f3 0f 1e fa             endbr64
    2786:       55                      push   %rbp
    2787:       48 89 e5                mov    %rsp,%rbp
    278a:       48 83 ec 30             sub    $0x30,%rsp
    278e:       48 89 7d d8             mov    %rdi,-0x28(%rbp)
    2792:       64 48 8b 04 25 28 00    mov    %fs:0x28,%rax
    2799:       00 00
    279b:       48 89 45 f8             mov    %rax,-0x8(%rbp)
    279f:       31 c0                   xor    %eax,%eax
    27a1:       48 c7 45 f0 00 00 00    movq   $0x0,-0x10(%rbp)
    27a8:       00
    27a9:       eb 05                   jmp    27b0 <_ZN9__gnu_cxx11char_traitsIcE6lengthEPKc+0x2e>
    27ab:       48 83 45 f0 01          addq   $0x1,-0x10(%rbp)
    27b0:       c6 45 ef 00             movb   $0x0,-0x11(%rbp)
    27b4:       48 8b 55 d8             mov    -0x28(%rbp),%rdx
    27b8:       48 8b 45 f0             mov    -0x10(%rbp),%rax
    27bc:       48 01 c2                add    %rax,%rdx
    27bf:       48 8d 45 ef             lea    -0x11(%rbp),%rax
    27c3:       48 89 c6                mov    %rax,%rsi
    27c6:       48 89 d7                mov    %rdx,%rdi
    27c9:       e8 8e ff ff ff          call   275c <_ZN9__gnu_cxx11char_traitsIcE2eqERKcS3_>
    27ce:       83 f0 01                xor    $0x1,%eax
    27d1:       84 c0                   test   %al,%al
    27d3:       75 d6                   jne    27ab <_ZN9__gnu_cxx11char_traitsIcE6lengthEPKc+0x29>
    27d5:       48 8b 45 f0             mov    -0x10(%rbp),%rax
    27d9:       48 8b 55 f8             mov    -0x8(%rbp),%rdx
    27dd:       64 48 2b 14 25 28 00    sub    %fs:0x28,%rdx
    27e4:       00 00
    27e6:       74 05                   je     27ed <_ZN9__gnu_cxx11char_traitsIcE6lengthEPKc+0x6b>
    27e8:       e8 03 fb ff ff          call   22f0 <__stack_chk_fail@plt>
    27ed:       c9                      leave
    27ee:       c3                      ret
    27ef:       90                      nop

00000000000027f0 <_ZNSt7__cxx1112basic_stringIcSt11char_traitsIcESaIcEE12_Alloc_hiderD1Ev>:
    27f0:       f3 0f 1e fa             endbr64
    27f4:       55                      push   %rbp
    27f5:       48 89 e5                mov    %rsp,%rbp
    27f8:       48 83 ec 10             sub    $0x10,%rsp
    27fc:       48 89 7d f8             mov    %rdi,-0x8(%rbp)
    2800:       48 8b 45 f8             mov    -0x8(%rbp),%rax
    2804:       48 89 c7                mov    %rax,%rdi
    2807:       e8 e4 f9 ff ff          call   21f0 <_ZNSaIcED2Ev@plt>
    280c:       90                      nop
    280d:       c9                      leave
    280e:       c3                      ret

000000000000280f <_ZSt3powIdiEN9__gnu_cxx11__promote_2IT_T0_NS0_9__promoteIS2_XsrSt12__is_integerIS2_E7__valueEE6__typeENS4_IS3_XsrS5_IS3_E7__valueEE6__typeEE6__typeES2_S3_>:
    280f:       f3 0f 1e fa             endbr64
    2813:       55                      push   %rbp
    2814:       48 89 e5                mov    %rsp,%rbp
    2817:       48 83 ec 10             sub    $0x10,%rsp
    281b:       f2 0f 11 45 f8          movsd  %xmm0,-0x8(%rbp)
    2820:       89 7d f4                mov    %edi,-0xc(%rbp)
    2823:       66 0f ef c0             pxor   %xmm0,%xmm0
    2827:       f2 0f 2a 45 f4          cvtsi2sdl -0xc(%rbp),%xmm0
    282c:       48 8b 45 f8             mov    -0x8(%rbp),%rax
    2830:       66 0f 28 c8             movapd %xmm0,%xmm1
    2834:       66 48 0f 6e c0          movq   %rax,%xmm0
    2839:       e8 02 fb ff ff          call   2340 <pow@plt>
    283e:       66 48 0f 7e c0          movq   %xmm0,%rax
    2843:       66 48 0f 6e c0          movq   %rax,%xmm0
    2848:       c9                      leave
    2849:       c3                      ret

000000000000284a <_ZNSt7__cxx1112basic_stringIcSt11char_traitsIcESaIcEEC1IS3_EEPKcRKS3_>:
    284a:       f3 0f 1e fa             endbr64
    284e:       55                      push   %rbp
    284f:       48 89 e5                mov    %rsp,%rbp
    2852:       53                      push   %rbx
    2853:       48 83 ec 48             sub    $0x48,%rsp
    2857:       48 89 7d c8             mov    %rdi,-0x38(%rbp)
    285b:       48 89 75 c0             mov    %rsi,-0x40(%rbp)
    285f:       48 89 55 b8             mov    %rdx,-0x48(%rbp)
    2863:       64 48 8b 04 25 28 00    mov    %fs:0x28,%rax
    286a:       00 00
    286c:       48 89 45 e8             mov    %rax,-0x18(%rbp)
    2870:       31 c0                   xor    %eax,%eax
    2872:       48 8b 5d c8             mov    -0x38(%rbp),%rbx
    2876:       48 8b 45 c8             mov    -0x38(%rbp),%rax
    287a:       48 89 c7                mov    %rax,%rdi
    287d:       e8 ce f9 ff ff          call   2250 <_ZNSt7__cxx1112basic_stringIcSt11char_traitsIcESaIcEE13_M_local_dataEv@plt>
    2882:       48 89 c1                mov    %rax,%rcx
    2885:       48 8b 45 b8             mov    -0x48(%rbp),%rax
    2889:       48 89 c2                mov    %rax,%rdx
    288c:       48 89 ce                mov    %rcx,%rsi
    288f:       48 89 df                mov    %rbx,%rdi
    2892:       e8 19 fa ff ff          call   22b0 <_ZNSt7__cxx1112basic_stringIcSt11char_traitsIcESaIcEE12_Alloc_hiderC1EPcRKS3_@plt>
    2897:       48 83 7d c0 00          cmpq   $0x0,-0x40(%rbp)
    289c:       74 15                   je     28b3 <_ZNSt7__cxx1112basic_stringIcSt11char_traitsIcESaIcEEC1IS3_EEPKcRKS3_+0x69>
    289e:       48 8b 45 c0             mov    -0x40(%rbp),%rax
    28a2:       48 89 c7                mov    %rax,%rdi
    28a5:       e8 75 fd ff ff          call   261f <_ZNSt11char_traitsIcE6lengthEPKc>
    28aa:       48 8b 55 c0             mov    -0x40(%rbp),%rdx
    28ae:       48 01 d0                add    %rdx,%rax
    28b1:       eb 05                   jmp    28b8 <_ZNSt7__cxx1112basic_stringIcSt11char_traitsIcESaIcEEC1IS3_EEPKcRKS3_+0x6e>
    28b3:       b8 01 00 00 00          mov    $0x1,%eax
    28b8:       48 89 45 e0             mov    %rax,-0x20(%rbp)
    28bc:       48 8b 55 e0             mov    -0x20(%rbp),%rdx
    28c0:       48 8b 4d c0             mov    -0x40(%rbp),%rcx
    28c4:       48 8b 45 c8             mov    -0x38(%rbp),%rax
    28c8:       48 89 ce                mov    %rcx,%rsi
    28cb:       48 89 c7                mov    %rax,%rdi
    28ce:       e8 6f 00 00 00          call   2942 <_ZNSt7__cxx1112basic_stringIcSt11char_traitsIcESaIcEE12_M_constructIPKcEEvT_S8_St20forward_iterator_tag>
    28d3:       eb 1e                   jmp    28f3 <_ZNSt7__cxx1112basic_stringIcSt11char_traitsIcESaIcEEC1IS3_EEPKcRKS3_+0xa9>
    28d5:       f3 0f 1e fa             endbr64
    28d9:       48 89 c3                mov    %rax,%rbx
    28dc:       48 8b 45 c8             mov    -0x38(%rbp),%rax
    28e0:       48 89 c7                mov    %rax,%rdi
    28e3:       e8 08 ff ff ff          call   27f0 <_ZNSt7__cxx1112basic_stringIcSt11char_traitsIcESaIcEE12_Alloc_hiderD1Ev>
    28e8:       48 89 d8                mov    %rbx,%rax
    28eb:       48 89 c7                mov    %rax,%rdi
    28ee:       e8 5d fa ff ff          call   2350 <_Unwind_Resume@plt>
    28f3:       48 8b 45 e8             mov    -0x18(%rbp),%rax
    28f7:       64 48 2b 04 25 28 00    sub    %fs:0x28,%rax
    28fe:       00 00
    2900:       74 05                   je     2907 <_ZNSt7__cxx1112basic_stringIcSt11char_traitsIcESaIcEEC1IS3_EEPKcRKS3_+0xbd>
    2902:       e8 e9 f9 ff ff          call   22f0 <__stack_chk_fail@plt>
    2907:       48 8b 5d f8             mov    -0x8(%rbp),%rbx
    290b:       c9                      leave
    290c:       c3                      ret

000000000000290d <_ZSt8distanceIPKcENSt15iterator_traitsIT_E15difference_typeES3_S3_>:
    290d:       f3 0f 1e fa             endbr64
    2911:       55                      push   %rbp
    2912:       48 89 e5                mov    %rsp,%rbp
    2915:       48 83 ec 10             sub    $0x10,%rsp
    2919:       48 89 7d f8             mov    %rdi,-0x8(%rbp)
    291d:       48 89 75 f0             mov    %rsi,-0x10(%rbp)
    2921:       48 8d 45 f8             lea    -0x8(%rbp),%rax
    2925:       48 89 c7                mov    %rax,%rdi
    2928:       e8 70 01 00 00          call   2a9d <_ZSt19__iterator_categoryIPKcENSt15iterator_traitsIT_E17iterator_categoryERKS3_>
    292d:       48 8b 45 f8             mov    -0x8(%rbp),%rax
    2931:       48 8b 55 f0             mov    -0x10(%rbp),%rdx
    2935:       48 89 d6                mov    %rdx,%rsi
    2938:       48 89 c7                mov    %rax,%rdi
    293b:       e8 6b 01 00 00          call   2aab <_ZSt10__distanceIPKcENSt15iterator_traitsIT_E15difference_typeES3_S3_St26random_access_iterator_tag>
    2940:       c9                      leave
    2941:       c3                      ret

0000000000002942 <_ZNSt7__cxx1112basic_stringIcSt11char_traitsIcESaIcEE12_M_constructIPKcEEvT_S8_St20forward_iterator_tag>:
    2942:       f3 0f 1e fa             endbr64
    2946:       55                      push   %rbp
    2947:       48 89 e5                mov    %rsp,%rbp
    294a:       53                      push   %rbx
    294b:       48 83 ec 38             sub    $0x38,%rsp
    294f:       48 89 7d d8             mov    %rdi,-0x28(%rbp)
    2953:       48 89 75 d0             mov    %rsi,-0x30(%rbp)
    2957:       48 89 55 c8             mov    %rdx,-0x38(%rbp)
    295b:       64 48 8b 04 25 28 00    mov    %fs:0x28,%rax
    2962:       00 00
    2964:       48 89 45 e8             mov    %rax,-0x18(%rbp)
    2968:       31 c0                   xor    %eax,%eax
    296a:       48 8b 45 d0             mov    -0x30(%rbp),%rax
    296e:       48 89 c7                mov    %rax,%rdi
    2971:       e8 11 01 00 00          call   2a87 <_ZN9__gnu_cxx17__is_null_pointerIKcEEbPT_>
    2976:       84 c0                   test   %al,%al
    2978:       74 11                   je     298b <_ZNSt7__cxx1112basic_stringIcSt11char_traitsIcESaIcEE12_M_constructIPKcEEvT_S8_St20forward_iterator_tag+0x49>
    297a:       48 8b 45 d0             mov    -0x30(%rbp),%rax
    297e:       48 3b 45 c8             cmp    -0x38(%rbp),%rax
    2982:       74 07                   je     298b <_ZNSt7__cxx1112basic_stringIcSt11char_traitsIcESaIcEE12_M_constructIPKcEEvT_S8_St20forward_iterator_tag+0x49>
    2984:       b8 01 00 00 00          mov    $0x1,%eax
    2989:       eb 05                   jmp    2990 <_ZNSt7__cxx1112basic_stringIcSt11char_traitsIcESaIcEE12_M_constructIPKcEEvT_S8_St20forward_iterator_tag+0x4e>
    298b:       b8 00 00 00 00          mov    $0x0,%eax
    2990:       84 c0                   test   %al,%al
    2992:       74 0f                   je     29a3 <_ZNSt7__cxx1112basic_stringIcSt11char_traitsIcESaIcEE12_M_constructIPKcEEvT_S8_St20forward_iterator_tag+0x61>
    2994:       48 8d 05 8d 06 00 00    lea    0x68d(%rip),%rax        # 3028 <_ZL9MAX_COUNT+0x20>
    299b:       48 89 c7                mov    %rax,%rdi
    299e:       e8 9d f8 ff ff          call   2240 <_ZSt19__throw_logic_errorPKc@plt>
    29a3:       48 8b 55 c8             mov    -0x38(%rbp),%rdx
    29a7:       48 8b 45 d0             mov    -0x30(%rbp),%rax
    29ab:       48 89 d6                mov    %rdx,%rsi
    29ae:       48 89 c7                mov    %rax,%rdi
    29b1:       e8 57 ff ff ff          call   290d <_ZSt8distanceIPKcENSt15iterator_traitsIT_E15difference_typeES3_S3_>
    29b6:       48 89 45 e0             mov    %rax,-0x20(%rbp)
    29ba:       48 8b 45 e0             mov    -0x20(%rbp),%rax
    29be:       48 83 f8 0f             cmp    $0xf,%rax
    29c2:       76 3d                   jbe    2a01 <_ZNSt7__cxx1112basic_stringIcSt11char_traitsIcESaIcEE12_M_constructIPKcEEvT_S8_St20forward_iterator_tag+0xbf>
    29c4:       48 8d 4d e0             lea    -0x20(%rbp),%rcx
    29c8:       48 8b 45 d8             mov    -0x28(%rbp),%rax
    29cc:       ba 00 00 00 00          mov    $0x0,%edx
    29d1:       48 89 ce                mov    %rcx,%rsi
    29d4:       48 89 c7                mov    %rax,%rdi
    29d7:       e8 94 f9 ff ff          call   2370 <_ZNSt7__cxx1112basic_stringIcSt11char_traitsIcESaIcEE9_M_createERmm@plt>
    29dc:       48 89 c2                mov    %rax,%rdx
    29df:       48 8b 45 d8             mov    -0x28(%rbp),%rax
    29e3:       48 89 d6                mov    %rdx,%rsi
    29e6:       48 89 c7                mov    %rax,%rdi
    29e9:       e8 72 f8 ff ff          call   2260 <_ZNSt7__cxx1112basic_stringIcSt11char_traitsIcESaIcEE7_M_dataEPc@plt>
    29ee:       48 8b 55 e0             mov    -0x20(%rbp),%rdx
    29f2:       48 8b 45 d8             mov    -0x28(%rbp),%rax
    29f6:       48 89 d6                mov    %rdx,%rsi
    29f9:       48 89 c7                mov    %rax,%rdi
    29fc:       e8 8f f9 ff ff          call   2390 <_ZNSt7__cxx1112basic_stringIcSt11char_traitsIcESaIcEE11_M_capacityEm@plt>
    2a01:       48 8b 45 d8             mov    -0x28(%rbp),%rax
    2a05:       48 89 c7                mov    %rax,%rdi
    2a08:       e8 c3 f8 ff ff          call   22d0 <_ZNKSt7__cxx1112basic_stringIcSt11char_traitsIcESaIcEE7_M_dataEv@plt>
    2a0d:       48 89 c1                mov    %rax,%rcx
    2a10:       48 8b 55 c8             mov    -0x38(%rbp),%rdx
    2a14:       48 8b 45 d0             mov    -0x30(%rbp),%rax
    2a18:       48 89 c6                mov    %rax,%rsi
    2a1b:       48 89 cf                mov    %rcx,%rdi
    2a1e:       e8 bd f8 ff ff          call   22e0 <_ZNSt7__cxx1112basic_stringIcSt11char_traitsIcESaIcEE13_S_copy_charsEPcPKcS7_@plt>
    2a23:       48 8b 55 e0             mov    -0x20(%rbp),%rdx
    2a27:       48 8b 45 d8             mov    -0x28(%rbp),%rax
    2a2b:       48 89 d6                mov    %rdx,%rsi
    2a2e:       48 89 c7                mov    %rax,%rdi
    2a31:       e8 fa f7 ff ff          call   2230 <_ZNSt7__cxx1112basic_stringIcSt11char_traitsIcESaIcEE13_M_set_lengthEm@plt>
    2a36:       90                      nop
    2a37:       48 8b 45 e8             mov    -0x18(%rbp),%rax
    2a3b:       64 48 2b 04 25 28 00    sub    %fs:0x28,%rax
    2a42:       00 00
    2a44:       74 3b                   je     2a81 <_ZNSt7__cxx1112basic_stringIcSt11char_traitsIcESaIcEE12_M_constructIPKcEEvT_S8_St20forward_iterator_tag+0x13f>
    2a46:       eb 34                   jmp    2a7c <_ZNSt7__cxx1112basic_stringIcSt11char_traitsIcESaIcEE12_M_constructIPKcEEvT_S8_St20forward_iterator_tag+0x13a>
    2a48:       f3 0f 1e fa             endbr64
    2a4c:       48 89 c7                mov    %rax,%rdi
    2a4f:       e8 ac f7 ff ff          call   2200 <__cxa_begin_catch@plt>
    2a54:       48 8b 45 d8             mov    -0x28(%rbp),%rax
    2a58:       48 89 c7                mov    %rax,%rdi
    2a5b:       e8 a0 f8 ff ff          call   2300 <_ZNSt7__cxx1112basic_stringIcSt11char_traitsIcESaIcEE10_M_disposeEv@plt>
    2a60:       e8 ab f8 ff ff          call   2310 <__cxa_rethrow@plt>
    2a65:       f3 0f 1e fa             endbr64
    2a69:       48 89 c3                mov    %rax,%rbx
    2a6c:       e8 bf f8 ff ff          call   2330 <__cxa_end_catch@plt>
    2a71:       48 89 d8                mov    %rbx,%rax
    2a74:       48 89 c7                mov    %rax,%rdi
    2a77:       e8 d4 f8 ff ff          call   2350 <_Unwind_Resume@plt>
    2a7c:       e8 6f f8 ff ff          call   22f0 <__stack_chk_fail@plt>
    2a81:       48 8b 5d f8             mov    -0x8(%rbp),%rbx
    2a85:       c9                      leave
    2a86:       c3                      ret

0000000000002a87 <_ZN9__gnu_cxx17__is_null_pointerIKcEEbPT_>:
    2a87:       f3 0f 1e fa             endbr64
    2a8b:       55                      push   %rbp
    2a8c:       48 89 e5                mov    %rsp,%rbp
    2a8f:       48 89 7d f8             mov    %rdi,-0x8(%rbp)
    2a93:       48 83 7d f8 00          cmpq   $0x0,-0x8(%rbp)
    2a98:       0f 94 c0                sete   %al
    2a9b:       5d                      pop    %rbp
    2a9c:       c3                      ret

0000000000002a9d <_ZSt19__iterator_categoryIPKcENSt15iterator_traitsIT_E17iterator_categoryERKS3_>:
    2a9d:       f3 0f 1e fa             endbr64
    2aa1:       55                      push   %rbp
    2aa2:       48 89 e5                mov    %rsp,%rbp
    2aa5:       48 89 7d f8             mov    %rdi,-0x8(%rbp)
    2aa9:       5d                      pop    %rbp
    2aaa:       c3                      ret

0000000000002aab <_ZSt10__distanceIPKcENSt15iterator_traitsIT_E15difference_typeES3_S3_St26random_access_iterator_tag>:
    2aab:       f3 0f 1e fa             endbr64
    2aaf:       55                      push   %rbp
    2ab0:       48 89 e5                mov    %rsp,%rbp
    2ab3:       48 89 7d f8             mov    %rdi,-0x8(%rbp)
    2ab7:       48 89 75 f0             mov    %rsi,-0x10(%rbp)
    2abb:       48 8b 45 f0             mov    -0x10(%rbp),%rax
    2abf:       48 2b 45 f8             sub    -0x8(%rbp),%rax
    2ac3:       5d                      pop    %rbp
    2ac4:       c3                      ret

Disassembly of section .fini:

0000000000002ac8 <_fini>:
    2ac8:       f3 0f 1e fa             endbr64
    2acc:       48 83 ec 08             sub    $0x8,%rsp
    2ad0:       48 83 c4 08             add    $0x8,%rsp
    2ad4:       c3                      ret